

Microchip MPLAB XC8 Assembler V2.36 build 20220127204148 
                                                                                               Sat May 14 05:42:18 2022

Microchip MPLAB XC8 C Compiler v2.36 (Free license) build 20220127204148 Og1 
     1                           	processor	16F887
     2                           	pagewidth 120
     3                           	opt	flic
     4                           	psect	cinit,global,class=CODE,merge=1,delta=2
     5                           	psect	bssBANK1,global,class=BANK1,space=1,delta=1,noexec
     6                           	psect	cstackBANK1,global,class=BANK1,space=1,delta=1,noexec
     7                           	psect	cstackCOMMON,global,class=COMMON,space=1,delta=1,noexec
     8                           	psect	cstackBANK0,global,class=BANK0,space=1,delta=1,noexec
     9                           	psect	maintext,global,class=CODE,split=1,delta=2
    10                           	psect	text1,local,class=CODE,merge=1,delta=2
    11                           	psect	text2,local,class=CODE,merge=1,delta=2
    12                           	psect	intentry,global,class=CODE,delta=2
    13                           	psect	text3,local,class=CODE,merge=1,delta=2
    14                           	psect	text4,local,class=CODE,merge=1,delta=2,group=1
    15                           	psect	text5,local,class=CODE,merge=1,delta=2,group=1
    16                           	psect	text6,local,class=CODE,merge=1,delta=2,group=1
    17                           	psect	text7,local,class=CODE,merge=1,delta=2,group=1
    18                           	psect	text8,local,class=CODE,merge=1,delta=2,group=1
    19                           	psect	text9,local,class=CODE,merge=1,delta=2,group=1
    20                           	psect	idloc,global,abs,ovrld,class=IDLOC,space=5,delta=2,noexec
    21                           	psect	config,global,abs,ovrld,class=CONFIG,space=4,delta=2,noexec
    22                           	dabs	1,0x7E,2
    23  0000                     
    24                           ; Version 2.40
    25                           ; Generated 17/11/2021 GMT
    26                           ; 
    27                           ; Copyright © 2021, Microchip Technology Inc. and its subsidiaries ("Microchip")
    28                           ; All rights reserved.
    29                           ; 
    30                           ; This software is developed by Microchip Technology Inc. and its subsidiaries ("Microch
      +                          ip").
    31                           ; 
    32                           ; Redistribution and use in source and binary forms, with or without modification, are
    33                           ; permitted provided that the following conditions are met:
    34                           ; 
    35                           ;     1. Redistributions of source code must retain the above copyright notice, this lis
      +                          t of
    36                           ;        conditions and the following disclaimer.
    37                           ; 
    38                           ;     2. Redistributions in binary form must reproduce the above copyright notice, this 
      +                          list
    39                           ;        of conditions and the following disclaimer in the documentation and/or other
    40                           ;        materials provided with the distribution. Publication is not required when
    41                           ;        this file is used in an embedded application.
    42                           ; 
    43                           ;     3. Microchip's name may not be used to endorse or promote products derived from th
      +                          is
    44                           ;        software without specific prior written permission.
    45                           ; 
    46                           ; THIS SOFTWARE IS PROVIDED BY MICROCHIP "AS IS" AND ANY EXPRESS OR IMPLIED WARRANTIES,
    47                           ; INCLUDING, BUT NOT LIMITED TO, THE IMPLIED WARRANTIES OF MERCHANTABILITY AND FITNESS F
      +                          OR
    48                           ; PURPOSE ARE DISCLAIMED.  IN NO EVENT SHALL MICROCHIP BE LIABLE FOR ANY DIRECT, INDIREC
      +                          T,
    49                           ; INCIDENTAL, SPECIAL, EXEMPLARY, OR CONSEQUENTIAL DAMAGES (INCLUDING BUT NOT LIMITED TO
    50                           ; PROCUREMENT OF SUBSTITUTE GOODS OR SERVICES; LOSS OF USE, DATA OR PROFITS; OR BUSINESS
    51                           ; INTERRUPTION) HOWSOEVER CAUSED AND ON ANY THEORY OF LIABILITY, WHETHER IN CONTRACT, ST
      +                          RICT
    52                           ; LIABILITY, OR TORT (INCLUDING NEGLIGENCE OR OTHERWISE) ARISING IN ANY WAY OUT OF THE U
      +                          SE OF
    53                           ; THIS SOFTWARE, EVEN IF ADVISED OF THE POSSIBILITY OF SUCH DAMAGE.
    54                           ; 
    55                           ; 
    56                           ; Code-generator required, PIC16F887 Definitions
    57                           ; 
    58                           ; SFR Addresses
    59  0000                     	;# 
    60  0001                     	;# 
    61  0002                     	;# 
    62  0003                     	;# 
    63  0004                     	;# 
    64  0005                     	;# 
    65  0006                     	;# 
    66  0007                     	;# 
    67  0008                     	;# 
    68  0009                     	;# 
    69  000A                     	;# 
    70  000B                     	;# 
    71  000C                     	;# 
    72  000D                     	;# 
    73  000E                     	;# 
    74  000E                     	;# 
    75  000F                     	;# 
    76  0010                     	;# 
    77  0011                     	;# 
    78  0012                     	;# 
    79  0013                     	;# 
    80  0014                     	;# 
    81  0015                     	;# 
    82  0015                     	;# 
    83  0016                     	;# 
    84  0017                     	;# 
    85  0018                     	;# 
    86  0019                     	;# 
    87  001A                     	;# 
    88  001B                     	;# 
    89  001B                     	;# 
    90  001C                     	;# 
    91  001D                     	;# 
    92  001E                     	;# 
    93  001F                     	;# 
    94  0081                     	;# 
    95  0085                     	;# 
    96  0086                     	;# 
    97  0087                     	;# 
    98  0088                     	;# 
    99  0089                     	;# 
   100  008C                     	;# 
   101  008D                     	;# 
   102  008E                     	;# 
   103  008F                     	;# 
   104  0090                     	;# 
   105  0091                     	;# 
   106  0092                     	;# 
   107  0093                     	;# 
   108  0093                     	;# 
   109  0093                     	;# 
   110  0094                     	;# 
   111  0095                     	;# 
   112  0096                     	;# 
   113  0097                     	;# 
   114  0098                     	;# 
   115  0099                     	;# 
   116  009A                     	;# 
   117  009B                     	;# 
   118  009C                     	;# 
   119  009D                     	;# 
   120  009E                     	;# 
   121  009F                     	;# 
   122  0105                     	;# 
   123  0107                     	;# 
   124  0108                     	;# 
   125  0109                     	;# 
   126  010C                     	;# 
   127  010C                     	;# 
   128  010D                     	;# 
   129  010E                     	;# 
   130  010F                     	;# 
   131  0185                     	;# 
   132  0187                     	;# 
   133  0188                     	;# 
   134  0189                     	;# 
   135  018C                     	;# 
   136  018D                     	;# 
   137  0000                     	;# 
   138  0001                     	;# 
   139  0002                     	;# 
   140  0003                     	;# 
   141  0004                     	;# 
   142  0005                     	;# 
   143  0006                     	;# 
   144  0007                     	;# 
   145  0008                     	;# 
   146  0009                     	;# 
   147  000A                     	;# 
   148  000B                     	;# 
   149  000C                     	;# 
   150  000D                     	;# 
   151  000E                     	;# 
   152  000E                     	;# 
   153  000F                     	;# 
   154  0010                     	;# 
   155  0011                     	;# 
   156  0012                     	;# 
   157  0013                     	;# 
   158  0014                     	;# 
   159  0015                     	;# 
   160  0015                     	;# 
   161  0016                     	;# 
   162  0017                     	;# 
   163  0018                     	;# 
   164  0019                     	;# 
   165  001A                     	;# 
   166  001B                     	;# 
   167  001B                     	;# 
   168  001C                     	;# 
   169  001D                     	;# 
   170  001E                     	;# 
   171  001F                     	;# 
   172  0081                     	;# 
   173  0085                     	;# 
   174  0086                     	;# 
   175  0087                     	;# 
   176  0088                     	;# 
   177  0089                     	;# 
   178  008C                     	;# 
   179  008D                     	;# 
   180  008E                     	;# 
   181  008F                     	;# 
   182  0090                     	;# 
   183  0091                     	;# 
   184  0092                     	;# 
   185  0093                     	;# 
   186  0093                     	;# 
   187  0093                     	;# 
   188  0094                     	;# 
   189  0095                     	;# 
   190  0096                     	;# 
   191  0097                     	;# 
   192  0098                     	;# 
   193  0099                     	;# 
   194  009A                     	;# 
   195  009B                     	;# 
   196  009C                     	;# 
   197  009D                     	;# 
   198  009E                     	;# 
   199  009F                     	;# 
   200  0105                     	;# 
   201  0107                     	;# 
   202  0108                     	;# 
   203  0109                     	;# 
   204  010C                     	;# 
   205  010C                     	;# 
   206  010D                     	;# 
   207  010E                     	;# 
   208  010F                     	;# 
   209  0185                     	;# 
   210  0187                     	;# 
   211  0188                     	;# 
   212  0189                     	;# 
   213  018C                     	;# 
   214  018D                     	;# 
   215  0000                     	;# 
   216  0001                     	;# 
   217  0002                     	;# 
   218  0003                     	;# 
   219  0004                     	;# 
   220  0005                     	;# 
   221  0006                     	;# 
   222  0007                     	;# 
   223  0008                     	;# 
   224  0009                     	;# 
   225  000A                     	;# 
   226  000B                     	;# 
   227  000C                     	;# 
   228  000D                     	;# 
   229  000E                     	;# 
   230  000E                     	;# 
   231  000F                     	;# 
   232  0010                     	;# 
   233  0011                     	;# 
   234  0012                     	;# 
   235  0013                     	;# 
   236  0014                     	;# 
   237  0015                     	;# 
   238  0015                     	;# 
   239  0016                     	;# 
   240  0017                     	;# 
   241  0018                     	;# 
   242  0019                     	;# 
   243  001A                     	;# 
   244  001B                     	;# 
   245  001B                     	;# 
   246  001C                     	;# 
   247  001D                     	;# 
   248  001E                     	;# 
   249  001F                     	;# 
   250  0081                     	;# 
   251  0085                     	;# 
   252  0086                     	;# 
   253  0087                     	;# 
   254  0088                     	;# 
   255  0089                     	;# 
   256  008C                     	;# 
   257  008D                     	;# 
   258  008E                     	;# 
   259  008F                     	;# 
   260  0090                     	;# 
   261  0091                     	;# 
   262  0092                     	;# 
   263  0093                     	;# 
   264  0093                     	;# 
   265  0093                     	;# 
   266  0094                     	;# 
   267  0095                     	;# 
   268  0096                     	;# 
   269  0097                     	;# 
   270  0098                     	;# 
   271  0099                     	;# 
   272  009A                     	;# 
   273  009B                     	;# 
   274  009C                     	;# 
   275  009D                     	;# 
   276  009E                     	;# 
   277  009F                     	;# 
   278  0105                     	;# 
   279  0107                     	;# 
   280  0108                     	;# 
   281  0109                     	;# 
   282  010C                     	;# 
   283  010C                     	;# 
   284  010D                     	;# 
   285  010E                     	;# 
   286  010F                     	;# 
   287  0185                     	;# 
   288  0187                     	;# 
   289  0188                     	;# 
   290  0189                     	;# 
   291  018C                     	;# 
   292  018D                     	;# 
   293  0013                     _SSPBUF	set	19
   294  000B                     _INTCONbits	set	11
   295  0012                     _T2CONbits	set	18
   296  000C                     _PIR1bits	set	12
   297  0015                     _CCPR1L	set	21
   298  0017                     _CCP1CONbits	set	23
   299  0017                     _CCP1CON	set	23
   300  0014                     _SSPCONbits	set	20
   301  0007                     _PORTC	set	7
   302  0005                     _PORTA	set	5
   303  008C                     _PIE1bits	set	140
   304  0092                     _PR2	set	146
   305  0087                     _TRISCbits	set	135
   306  0094                     _SSPSTATbits	set	148
   307  008F                     _OSCCONbits	set	143
   308  0087                     _TRISC	set	135
   309  0085                     _TRISA	set	133
   310  0188                     _ANSEL	set	392
   311  0189                     _ANSELH	set	393
   312                           
   313                           	psect	cinit
   314  0013                     start_initialization:	
   315                           ; #config settings
   316                           
   317  0013                     __initialization:
   318                           
   319                           ; Clear objects allocated to BANK1
   320  0013  1683               	bsf	3,5	;RP0=1, select bank1
   321  0014  1303               	bcf	3,6	;RP1=0, select bank1
   322  0015  01B0               	clrf	__pbssBANK1& (0+127)
   323  0016  01B1               	clrf	(__pbssBANK1+1)& (0+127)
   324  0017  01B2               	clrf	(__pbssBANK1+2)& (0+127)
   325  0018                     end_of_initialization:	
   326                           ;End of C runtime variable initialization code
   327                           
   328  0018                     __end_of__initialization:
   329  0018  0183               	clrf	3
   330  0019  120A  118A  2FE2   	ljmp	_main	;jump to C main() function
   331                           
   332                           	psect	bssBANK1
   333  00B0                     __pbssBANK1:
   334  00B0                     _CCP1:
   335  00B0                     	ds	2
   336  00B2                     _PWM:
   337  00B2                     	ds	1
   338                           
   339                           	psect	cstackBANK1
   340  00A0                     __pcstackBANK1:
   341  00A0                     ??___fltol:
   342                           
   343                           ; 1 bytes @ 0x0
   344  00A0                     	ds	5
   345  00A5                     ?_map:
   346  00A5                     map@x1:	
   347                           ; 2 bytes @ 0x5
   348                           
   349                           
   350                           ; 1 bytes @ 0x5
   351  00A5                     	ds	1
   352  00A6                     map@x2:
   353                           
   354                           ; 1 bytes @ 0x6
   355  00A6                     	ds	1
   356  00A7                     map@y0:
   357                           
   358                           ; 2 bytes @ 0x7
   359  00A7                     	ds	2
   360  00A9                     map@y1:
   361                           
   362                           ; 2 bytes @ 0x9
   363  00A9                     	ds	2
   364  00AB                     ??_isr:
   365                           
   366                           ; 1 bytes @ 0xB
   367  00AB                     	ds	5
   368  00B0                     ??_setup:
   369  00B0                     ??_main:	
   370                           ; 1 bytes @ 0x10
   371                           
   372                           
   373                           	psect	cstackCOMMON
   374  0070                     __pcstackCOMMON:	
   375                           ; 1 bytes @ 0x10
   376                           
   377  0070                     ?_setup:
   378  0070                     ?_isr:	
   379                           ; 1 bytes @ 0x0
   380                           
   381  0070                     ?_main:	
   382                           ; 1 bytes @ 0x0
   383                           
   384  0070                     ?__Umul8_16:	
   385                           ; 1 bytes @ 0x0
   386                           
   387  0070                     ?___xxtofl:	
   388                           ; 2 bytes @ 0x0
   389                           
   390  0070                     __Umul8_16@multiplicand:	
   391                           ; 4 bytes @ 0x0
   392                           
   393  0070                     ___xxtofl@val:	
   394                           ; 1 bytes @ 0x0
   395                           
   396                           
   397                           ; 4 bytes @ 0x0
   398  0070                     	ds	2
   399  0072                     ??__Umul8_16:
   400                           
   401                           ; 1 bytes @ 0x2
   402  0072                     	ds	2
   403  0074                     ??___xxtofl:
   404  0074                     __Umul8_16@product:	
   405                           ; 1 bytes @ 0x4
   406                           
   407                           
   408                           ; 2 bytes @ 0x4
   409  0074                     	ds	2
   410  0076                     __Umul8_16@word_mpld:
   411                           
   412                           ; 2 bytes @ 0x6
   413  0076                     	ds	2
   414  0078                     __Umul8_16@multiplier:
   415  0078                     ___xxtofl@sign:	
   416                           ; 1 bytes @ 0x8
   417                           
   418                           
   419                           ; 1 bytes @ 0x8
   420  0078                     	ds	1
   421  0079                     ___xxtofl@exp:
   422                           
   423                           ; 1 bytes @ 0x9
   424  0079                     	ds	1
   425  007A                     ___xxtofl@arg:
   426                           
   427                           ; 4 bytes @ 0xA
   428  007A                     	ds	4
   429  007E                     ??_map:
   430                           
   431                           	psect	cstackBANK0
   432  0020                     __pcstackBANK0:	
   433                           ; 1 bytes @ 0xE
   434                           
   435  0020                     ?___fldiv:
   436  0020                     ___fldiv@a:	
   437                           ; 4 bytes @ 0x0
   438                           
   439                           
   440                           ; 4 bytes @ 0x0
   441  0020                     	ds	4
   442  0024                     ___fldiv@b:
   443                           
   444                           ; 4 bytes @ 0x4
   445  0024                     	ds	4
   446  0028                     ??___fldiv:
   447                           
   448                           ; 1 bytes @ 0x8
   449  0028                     	ds	5
   450  002D                     ___fldiv@rem:
   451                           
   452                           ; 4 bytes @ 0xD
   453  002D                     	ds	4
   454  0031                     ___fldiv@sign:
   455                           
   456                           ; 1 bytes @ 0x11
   457  0031                     	ds	1
   458  0032                     ___fldiv@new_exp:
   459                           
   460                           ; 2 bytes @ 0x12
   461  0032                     	ds	2
   462  0034                     ___fldiv@grs:
   463                           
   464                           ; 4 bytes @ 0x14
   465  0034                     	ds	4
   466  0038                     ___fldiv@bexp:
   467                           
   468                           ; 1 bytes @ 0x18
   469  0038                     	ds	1
   470  0039                     ___fldiv@aexp:
   471                           
   472                           ; 1 bytes @ 0x19
   473  0039                     	ds	1
   474  003A                     ?___flmul:
   475  003A                     ___flmul@b:	
   476                           ; 4 bytes @ 0x1A
   477                           
   478                           
   479                           ; 4 bytes @ 0x1A
   480  003A                     	ds	4
   481  003E                     ___flmul@a:
   482                           
   483                           ; 4 bytes @ 0x1E
   484  003E                     	ds	4
   485  0042                     ??___flmul:
   486                           
   487                           ; 1 bytes @ 0x22
   488  0042                     	ds	5
   489  0047                     ___flmul@sign:
   490                           
   491                           ; 1 bytes @ 0x27
   492  0047                     	ds	1
   493  0048                     ___flmul@grs:
   494                           
   495                           ; 4 bytes @ 0x28
   496  0048                     	ds	4
   497  004C                     ___flmul@aexp:
   498                           
   499                           ; 1 bytes @ 0x2C
   500  004C                     	ds	1
   501  004D                     ___flmul@bexp:
   502                           
   503                           ; 1 bytes @ 0x2D
   504  004D                     	ds	1
   505  004E                     ___flmul@prod:
   506                           
   507                           ; 4 bytes @ 0x2E
   508  004E                     	ds	4
   509  0052                     ___flmul@temp:
   510                           
   511                           ; 2 bytes @ 0x32
   512  0052                     	ds	2
   513  0054                     ?___fladd:
   514  0054                     ___fladd@b:	
   515                           ; 4 bytes @ 0x34
   516                           
   517                           
   518                           ; 4 bytes @ 0x34
   519  0054                     	ds	4
   520  0058                     ___fladd@a:
   521                           
   522                           ; 4 bytes @ 0x38
   523  0058                     	ds	4
   524  005C                     ??___fladd:
   525                           
   526                           ; 1 bytes @ 0x3C
   527  005C                     	ds	8
   528  0064                     ___fladd@signs:
   529                           
   530                           ; 1 bytes @ 0x44
   531  0064                     	ds	1
   532  0065                     ___fladd@aexp:
   533                           
   534                           ; 1 bytes @ 0x45
   535  0065                     	ds	1
   536  0066                     ___fladd@bexp:
   537                           
   538                           ; 1 bytes @ 0x46
   539  0066                     	ds	1
   540  0067                     ___fladd@grs:
   541                           
   542                           ; 1 bytes @ 0x47
   543  0067                     	ds	1
   544  0068                     ?___fltol:
   545  0068                     ___fltol@f1:	
   546                           ; 4 bytes @ 0x48
   547                           
   548                           
   549                           ; 4 bytes @ 0x48
   550  0068                     	ds	4
   551  006C                     ___fltol@sign1:
   552                           
   553                           ; 1 bytes @ 0x4C
   554  006C                     	ds	1
   555  006D                     ___fltol@exp1:
   556                           
   557                           ; 1 bytes @ 0x4D
   558  006D                     	ds	1
   559  006E                     map@x0:
   560                           
   561                           ; 1 bytes @ 0x4E
   562  006E                     	ds	1
   563                           
   564                           	psect	maintext
   565  07E2                     __pmaintext:	
   566 ;;
   567 ;;Main: autosize = 0, tempsize = 0, incstack = 0, save=0
   568 ;;
   569 ;; *************** function _main *****************
   570 ;; Defined at:
   571 ;;		line 49 in file "lab11slave2.c"
   572 ;; Parameters:    Size  Location     Type
   573 ;;		None
   574 ;; Auto vars:     Size  Location     Type
   575 ;;		None
   576 ;; Return value:  Size  Location     Type
   577 ;;                  1    wreg      void 
   578 ;; Registers used:
   579 ;;		wreg, status,2, status,0, pclath, cstack
   580 ;; Tracked objects:
   581 ;;		On entry : B00/0
   582 ;;		On exit  : 0/0
   583 ;;		Unchanged: 0/0
   584 ;; Data sizes:     COMMON   BANK0   BANK1   BANK3   BANK2
   585 ;;      Params:         0       0       0       0       0
   586 ;;      Locals:         0       0       0       0       0
   587 ;;      Temps:          0       0       0       0       0
   588 ;;      Totals:         0       0       0       0       0
   589 ;;Total ram usage:        0 bytes
   590 ;; Hardware stack levels required when called: 5
   591 ;; This function calls:
   592 ;;		_setup
   593 ;; This function is called by:
   594 ;;		Startup code after reset
   595 ;; This function uses a non-reentrant model
   596 ;;
   597                           
   598  07E2                     _main:	
   599                           ;psect for function _main
   600                           
   601  07E2                     l1932:	
   602                           ;incstack = 0
   603                           ; Regs used in _main: [wreg+status,2+status,0+pclath+cstack]
   604                           
   605                           
   606                           ;lab11slave2.c: 50:     setup();
   607  07E2  120A  158A  2541  120A  118A  	fcall	_setup
   608  07E7                     l76:	
   609                           ;lab11slave2.c: 51:     while(1){
   610                           
   611  07E7                     l77:	
   612                           ;lab11slave2.c: 52:     }
   613                           
   614  07E7  2FE7               	goto	l76
   615  07E8  120A  118A  2810   	ljmp	start
   616  07EB                     __end_of_main:
   617                           
   618                           	psect	text1
   619  0D41                     __ptext1:	
   620 ;; *************** function _setup *****************
   621 ;; Defined at:
   622 ;;		line 12 in file "setup2.c"
   623 ;; Parameters:    Size  Location     Type
   624 ;;		None
   625 ;; Auto vars:     Size  Location     Type
   626 ;;		None
   627 ;; Return value:  Size  Location     Type
   628 ;;                  1    wreg      void 
   629 ;; Registers used:
   630 ;;		wreg, status,2, status,0
   631 ;; Tracked objects:
   632 ;;		On entry : 0/0
   633 ;;		On exit  : 0/0
   634 ;;		Unchanged: 0/0
   635 ;; Data sizes:     COMMON   BANK0   BANK1   BANK3   BANK2
   636 ;;      Params:         0       0       0       0       0
   637 ;;      Locals:         0       0       0       0       0
   638 ;;      Temps:          0       0       0       0       0
   639 ;;      Totals:         0       0       0       0       0
   640 ;;Total ram usage:        0 bytes
   641 ;; Hardware stack levels used: 1
   642 ;; Hardware stack levels required when called: 4
   643 ;; This function calls:
   644 ;;		Nothing
   645 ;; This function is called by:
   646 ;;		_main
   647 ;; This function uses a non-reentrant model
   648 ;;
   649                           
   650  0D41                     _setup:	
   651                           ;psect for function _setup
   652                           
   653  0D41                     l1874:	
   654                           ;incstack = 0
   655                           ; Regs used in _setup: [wreg+status,2+status,0]
   656                           
   657                           
   658                           ;setup2.c: 13:     ANSELH = 0x00;
   659  0D41  1683               	bsf	3,5	;RP0=1, select bank3
   660  0D42  1703               	bsf	3,6	;RP1=1, select bank3
   661  0D43  0189               	clrf	9	;volatile
   662                           
   663                           ;setup2.c: 14:     ANSEL = 0x00;
   664  0D44  0188               	clrf	8	;volatile
   665  0D45                     l1876:
   666                           
   667                           ;setup2.c: 16:     TRISA = 0b00100000;
   668  0D45  3020               	movlw	32
   669  0D46  1683               	bsf	3,5	;RP0=1, select bank1
   670  0D47  1303               	bcf	3,6	;RP1=0, select bank1
   671  0D48  0085               	movwf	5	;volatile
   672  0D49                     l1878:
   673                           
   674                           ;setup2.c: 17:     PORTA = 0X00;
   675  0D49  1283               	bcf	3,5	;RP0=0, select bank0
   676  0D4A  1303               	bcf	3,6	;RP1=0, select bank0
   677  0D4B  0185               	clrf	5	;volatile
   678                           
   679                           ;setup2.c: 19:     TRISC = 0b00011000;
   680  0D4C  3018               	movlw	24
   681  0D4D  1683               	bsf	3,5	;RP0=1, select bank1
   682  0D4E  1303               	bcf	3,6	;RP1=0, select bank1
   683  0D4F  0087               	movwf	7	;volatile
   684  0D50                     l1880:
   685                           
   686                           ;setup2.c: 20:     PORTC = 0x00;
   687  0D50  1283               	bcf	3,5	;RP0=0, select bank0
   688  0D51  1303               	bcf	3,6	;RP1=0, select bank0
   689  0D52  0187               	clrf	7	;volatile
   690  0D53                     l1882:
   691                           
   692                           ;setup2.c: 22:     OSCCONbits.IRCF = 0b0100;
   693  0D53  1683               	bsf	3,5	;RP0=1, select bank1
   694  0D54  1303               	bcf	3,6	;RP1=0, select bank1
   695  0D55  080F               	movf	15,w	;volatile
   696  0D56  398F               	andlw	-113
   697  0D57  3840               	iorlw	64
   698  0D58  008F               	movwf	15	;volatile
   699  0D59                     l1884:
   700                           
   701                           ;setup2.c: 23:     OSCCONbits.SCS = 1;
   702  0D59  140F               	bsf	15,0	;volatile
   703  0D5A                     l1886:
   704                           
   705                           ;setup2.c: 26:     SSPCONbits.SSPM = 0b0100;
   706  0D5A  1283               	bcf	3,5	;RP0=0, select bank0
   707  0D5B  1303               	bcf	3,6	;RP1=0, select bank0
   708  0D5C  0814               	movf	20,w	;volatile
   709  0D5D  39F0               	andlw	-16
   710  0D5E  3804               	iorlw	4
   711  0D5F  0094               	movwf	20	;volatile
   712  0D60                     l1888:
   713                           
   714                           ;setup2.c: 27:     SSPCONbits.CKP = 0;
   715  0D60  1214               	bcf	20,4	;volatile
   716  0D61                     l1890:
   717                           
   718                           ;setup2.c: 28:     SSPCONbits.SSPEN = 1;
   719  0D61  1694               	bsf	20,5	;volatile
   720  0D62                     l1892:
   721                           
   722                           ;setup2.c: 30:     SSPSTATbits.CKE = 1;
   723  0D62  1683               	bsf	3,5	;RP0=1, select bank1
   724  0D63  1303               	bcf	3,6	;RP1=0, select bank1
   725  0D64  1714               	bsf	20,6	;volatile
   726  0D65                     l1894:
   727                           
   728                           ;setup2.c: 31:     SSPSTATbits.SMP = 0;
   729  0D65  1394               	bcf	20,7	;volatile
   730  0D66                     l1896:
   731                           
   732                           ;setup2.c: 34:     TRISCbits.TRISC2 = 1;
   733  0D66  1507               	bsf	7,2	;volatile
   734  0D67                     l1898:
   735                           
   736                           ;setup2.c: 35:     PR2 = 155;
   737  0D67  309B               	movlw	155
   738  0D68  0092               	movwf	18	;volatile
   739                           
   740                           ;setup2.c: 38:     CCP1CON = 0;
   741  0D69  1283               	bcf	3,5	;RP0=0, select bank0
   742  0D6A  1303               	bcf	3,6	;RP1=0, select bank0
   743  0D6B  0197               	clrf	23	;volatile
   744  0D6C                     l1900:
   745                           
   746                           ;setup2.c: 39:     CCP1CONbits.P1M = 0;
   747  0D6C  303F               	movlw	-193
   748  0D6D  0597               	andwf	23,f	;volatile
   749  0D6E                     l1902:
   750                           
   751                           ;setup2.c: 40:     CCP1CONbits.CCP1M = 0b1100;
   752  0D6E  0817               	movf	23,w	;volatile
   753  0D6F  39F0               	andlw	-16
   754  0D70  380C               	iorlw	12
   755  0D71  0097               	movwf	23	;volatile
   756  0D72                     l1904:
   757                           
   758                           ;setup2.c: 42:     CCPR1L = 125>>2;
   759  0D72  301F               	movlw	31
   760  0D73  0095               	movwf	21	;volatile
   761  0D74                     l1906:
   762                           
   763                           ;setup2.c: 43:     CCP1CONbits.DC1B = 125 & 0b11;
   764  0D74  0817               	movf	23,w	;volatile
   765  0D75  39CF               	andlw	-49
   766  0D76  3810               	iorlw	16
   767  0D77  0097               	movwf	23	;volatile
   768  0D78                     l1908:
   769                           
   770                           ;setup2.c: 45:     PIR1bits.TMR2IF = 0;
   771  0D78  108C               	bcf	12,1	;volatile
   772  0D79                     l1910:
   773                           
   774                           ;setup2.c: 46:     T2CONbits.T2CKPS = 0b11;
   775  0D79  3003               	movlw	3
   776  0D7A  0492               	iorwf	18,f	;volatile
   777  0D7B                     l1912:
   778                           
   779                           ;setup2.c: 47:     T2CONbits.TMR2ON = 1;
   780  0D7B  1512               	bsf	18,2	;volatile
   781  0D7C                     l39:	
   782                           ;setup2.c: 48:     while(!PIR1bits.TMR2IF);
   783                           
   784  0D7C  1C8C               	btfss	12,1	;volatile
   785  0D7D  2D7F               	goto	u2821
   786  0D7E  2D80               	goto	u2820
   787  0D7F                     u2821:
   788  0D7F  2D7C               	goto	l39
   789  0D80                     u2820:
   790  0D80                     l41:
   791                           
   792                           ;setup2.c: 49:     PIR1bits.TMR2IF = 0;
   793  0D80  108C               	bcf	12,1	;volatile
   794                           
   795                           ;setup2.c: 51:     TRISCbits.TRISC2 = 0;
   796  0D81  1683               	bsf	3,5	;RP0=1, select bank1
   797  0D82  1303               	bcf	3,6	;RP1=0, select bank1
   798  0D83  1107               	bcf	7,2	;volatile
   799                           
   800                           ;setup2.c: 54:     PIR1bits.SSPIF = 0;
   801  0D84  1283               	bcf	3,5	;RP0=0, select bank0
   802  0D85  1303               	bcf	3,6	;RP1=0, select bank0
   803  0D86  118C               	bcf	12,3	;volatile
   804                           
   805                           ;setup2.c: 55:     PIE1bits.SSPIE = 1;
   806  0D87  1683               	bsf	3,5	;RP0=1, select bank1
   807  0D88  1303               	bcf	3,6	;RP1=0, select bank1
   808  0D89  158C               	bsf	12,3	;volatile
   809                           
   810                           ;setup2.c: 56:     INTCONbits.PEIE = 1;
   811  0D8A  170B               	bsf	11,6	;volatile
   812                           
   813                           ;setup2.c: 57:     INTCONbits.GIE = 1;
   814  0D8B  178B               	bsf	11,7	;volatile
   815  0D8C                     l42:
   816  0D8C  0008               	return
   817  0D8D                     __end_of_setup:
   818                           
   819                           	psect	text2
   820  0D8D                     __ptext2:	
   821 ;; *************** function _isr *****************
   822 ;; Defined at:
   823 ;;		line 34 in file "lab11slave2.c"
   824 ;; Parameters:    Size  Location     Type
   825 ;;		None
   826 ;; Auto vars:     Size  Location     Type
   827 ;;		None
   828 ;; Return value:  Size  Location     Type
   829 ;;                  1    wreg      void 
   830 ;; Registers used:
   831 ;;		wreg, status,2, status,0, btemp+1, pclath, cstack
   832 ;; Tracked objects:
   833 ;;		On entry : 0/0
   834 ;;		On exit  : 0/0
   835 ;;		Unchanged: 0/0
   836 ;; Data sizes:     COMMON   BANK0   BANK1   BANK3   BANK2
   837 ;;      Params:         0       0       0       0       0
   838 ;;      Locals:         0       0       0       0       0
   839 ;;      Temps:          0       0       5       0       0
   840 ;;      Totals:         0       0       5       0       0
   841 ;;Total ram usage:        5 bytes
   842 ;; Hardware stack levels used: 1
   843 ;; Hardware stack levels required when called: 3
   844 ;; This function calls:
   845 ;;		_map
   846 ;; This function is called by:
   847 ;;		Interrupt level 1
   848 ;; This function uses a non-reentrant model
   849 ;;
   850                           
   851  0D8D                     _isr:	
   852                           ;psect for function _isr
   853                           
   854  0D8D                     i1l1918:
   855                           
   856                           ;lab11slave2.c: 35:     if (PIR1bits.SSPIF){
   857  0D8D  1283               	bcf	3,5	;RP0=0, select bank0
   858  0D8E  1303               	bcf	3,6	;RP1=0, select bank0
   859  0D8F  1D8C               	btfss	12,3	;volatile
   860  0D90  2D92               	goto	u283_21
   861  0D91  2D93               	goto	u283_20
   862  0D92                     u283_21:
   863  0D92  2DED               	goto	i1l71
   864  0D93                     u283_20:
   865  0D93                     i1l1920:
   866                           
   867                           ;lab11slave2.c: 36:         _delay((unsigned long)((1)*(1000000/4000.0)));
   868  0D93  3052               	movlw	82
   869  0D94  1683               	bsf	3,5	;RP0=1, select bank1
   870  0D95  1303               	bcf	3,6	;RP1=0, select bank1
   871  0D96  00AB               	movwf	??_isr^(0+128)
   872  0D97                     u285_27:
   873  0D97  0BAB               	decfsz	??_isr^(0+128),f
   874  0D98  2D97               	goto	u285_27
   875  0D99  0000               	nop
   876  0D9A                     i1l68:	
   877                           ;lab11slave2.c: 37:         while (!SSPSTATbits.BF){}
   878                           
   879  0D9A  1683               	bsf	3,5	;RP0=1, select bank1
   880  0D9B  1303               	bcf	3,6	;RP1=0, select bank1
   881  0D9C  1C14               	btfss	20,0	;volatile
   882  0D9D  2D9F               	goto	u284_21
   883  0D9E  2DA0               	goto	u284_20
   884  0D9F                     u284_21:
   885  0D9F  2D9A               	goto	i1l68
   886  0DA0                     u284_20:
   887  0DA0                     i1l1922:
   888                           
   889                           ;lab11slave2.c: 38:         PWM = SSPBUF;
   890  0DA0  1283               	bcf	3,5	;RP0=0, select bank0
   891  0DA1  1303               	bcf	3,6	;RP1=0, select bank0
   892  0DA2  0813               	movf	19,w	;volatile
   893  0DA3  1683               	bsf	3,5	;RP0=1, select bank1
   894  0DA4  1303               	bcf	3,6	;RP1=0, select bank1
   895  0DA5  00AB               	movwf	??_isr^(0+128)
   896  0DA6  082B               	movf	??_isr^(0+128),w
   897  0DA7  00B2               	movwf	_PWM^(0+128)
   898                           
   899                           ;lab11slave2.c: 39:         _delay((unsigned long)((10)*(1000000/4000.0)));
   900  0DA8  3004               	movlw	4
   901  0DA9  1683               	bsf	3,5	;RP0=1, select bank1
   902  0DAA  1303               	bcf	3,6	;RP1=0, select bank1
   903  0DAB  00AC               	movwf	(??_isr^(0+128)+1)
   904  0DAC  303D               	movlw	61
   905  0DAD  00AB               	movwf	??_isr^(0+128)
   906  0DAE                     u286_27:
   907  0DAE  0BAB               	decfsz	??_isr^(0+128),f
   908  0DAF  2DAE               	goto	u286_27
   909  0DB0  0BAC               	decfsz	(??_isr^(0+128)+1),f
   910  0DB1  2DAE               	goto	u286_27
   911  0DB2                     i1l1924:
   912                           
   913                           ;lab11slave2.c: 41:         CCP1 = map(PWM, 0, 255, 62, 125);
   914  0DB2  1683               	bsf	3,5	;RP0=1, select bank1
   915  0DB3  1303               	bcf	3,6	;RP1=0, select bank1
   916  0DB4  01A5               	clrf	map@x1^(0+128)
   917  0DB5  30FF               	movlw	255
   918  0DB6  00AB               	movwf	??_isr^(0+128)
   919  0DB7  082B               	movf	??_isr^(0+128),w
   920  0DB8  00A6               	movwf	map@x2^(0+128)
   921  0DB9  303E               	movlw	62
   922  0DBA  00A7               	movwf	map@y0^(0+128)
   923  0DBB  3000               	movlw	0
   924  0DBC  00A8               	movwf	(map@y0^(0+128)+1)
   925  0DBD  307D               	movlw	125
   926  0DBE  00A9               	movwf	map@y1^(0+128)
   927  0DBF  3000               	movlw	0
   928  0DC0  00AA               	movwf	(map@y1^(0+128)+1)
   929  0DC1  0832               	movf	_PWM^(0+128),w
   930  0DC2  120A  158A  2694  120A  158A  	fcall	_map
   931  0DC7  1683               	bsf	3,5	;RP0=1, select bank1
   932  0DC8  1303               	bcf	3,6	;RP1=0, select bank1
   933  0DC9  0826               	movf	(?_map+1)^(0+128),w
   934  0DCA  00B1               	movwf	(_CCP1+1)^(0+128)
   935  0DCB  0825               	movf	?_map^(0+128),w
   936  0DCC  00B0               	movwf	_CCP1^(0+128)
   937  0DCD                     i1l1926:
   938                           
   939                           ;lab11slave2.c: 42:         CCPR1L = (uint8_t)(CCP1>>2);
   940  0DCD  0831               	movf	(_CCP1+1)^(0+128),w
   941  0DCE  00AC               	movwf	(??_isr^(0+128)+1)
   942  0DCF  0830               	movf	_CCP1^(0+128),w
   943  0DD0  00AB               	movwf	??_isr^(0+128)
   944  0DD1  1003               	clrc
   945  0DD2  0CAC               	rrf	(??_isr^(0+128)+1),f
   946  0DD3  0CAB               	rrf	??_isr^(0+128),f
   947  0DD4  1003               	clrc
   948  0DD5  0CAC               	rrf	(??_isr^(0+128)+1),f
   949  0DD6  0CAB               	rrf	??_isr^(0+128),f
   950  0DD7  082B               	movf	??_isr^(0+128),w
   951  0DD8  1283               	bcf	3,5	;RP0=0, select bank0
   952  0DD9  1303               	bcf	3,6	;RP1=0, select bank0
   953  0DDA  0095               	movwf	21	;volatile
   954  0DDB                     i1l1928:
   955                           
   956                           ;lab11slave2.c: 43:         CCP1CONbits.DC1B = CCP1 & 0b11;
   957  0DDB  1683               	bsf	3,5	;RP0=1, select bank1
   958  0DDC  1303               	bcf	3,6	;RP1=0, select bank1
   959  0DDD  0830               	movf	_CCP1^(0+128),w
   960  0DDE  3903               	andlw	3
   961  0DDF  00AB               	movwf	??_isr^(0+128)
   962  0DE0  0EAB               	swapf	??_isr^(0+128),f
   963  0DE1  1283               	bcf	3,5	;RP0=0, select bank0
   964  0DE2  1303               	bcf	3,6	;RP1=0, select bank0
   965  0DE3  0817               	movf	23,w	;volatile
   966  0DE4  1683               	bsf	3,5	;RP0=1, select bank1
   967  0DE5  1303               	bcf	3,6	;RP1=0, select bank1
   968  0DE6  062B               	xorwf	??_isr^(0+128),w
   969  0DE7  39CF               	andlw	-49
   970  0DE8  062B               	xorwf	??_isr^(0+128),w
   971  0DE9  1283               	bcf	3,5	;RP0=0, select bank0
   972  0DEA  1303               	bcf	3,6	;RP1=0, select bank0
   973  0DEB  0097               	movwf	23	;volatile
   974  0DEC                     i1l1930:
   975                           
   976                           ;lab11slave2.c: 45:         PIR1bits.SSPIF = 0;
   977  0DEC  118C               	bcf	12,3	;volatile
   978  0DED                     i1l71:
   979  0DED  1683               	bsf	3,5	;RP0=1, select bank1
   980  0DEE  1303               	bcf	3,6	;RP1=0, select bank1
   981  0DEF  082F               	movf	(??_isr+4)^(0+128),w
   982  0DF0  00FF               	movwf	btemp+1
   983  0DF1  082E               	movf	(??_isr+3)^(0+128),w
   984  0DF2  008A               	movwf	10
   985  0DF3  0E2D               	swapf	(??_isr+2)^(0+128),w
   986  0DF4  0083               	movwf	3
   987  0DF5  0EFE               	swapf	btemp,f
   988  0DF6  0E7E               	swapf	btemp,w
   989  0DF7  0009               	retfie
   990  0DF8                     __end_of_isr:
   991                           
   992                           	psect	intentry
   993  0004                     __pintentry:	
   994                           ;incstack = 0
   995                           ; Regs used in _isr: [wreg+status,2+status,0+btemp+1+pclath+cstack]
   996                           
   997  0004                     interrupt_function:
   998  007E                     saved_w	set	btemp
   999  0004  00FE               	movwf	btemp
  1000  0005  0E03               	swapf	3,w
  1001  0006  1683               	bsf	3,5	;RP0=1, select bank1
  1002  0007  1303               	bcf	3,6	;RP1=0, select bank1
  1003  0008  00AD               	movwf	(??_isr+2)^(0+128)
  1004  0009  080A               	movf	10,w
  1005  000A  00AE               	movwf	(??_isr+3)^(0+128)
  1006  000B  087F               	movf	btemp+1,w
  1007  000C  00AF               	movwf	(??_isr+4)^(0+128)
  1008  000D  120A  158A  2D8D   	ljmp	_isr
  1009                           
  1010                           	psect	text3
  1011  0E94                     __ptext3:	
  1012 ;; *************** function _map *****************
  1013 ;; Defined at:
  1014 ;;		line 58 in file "lab11slave2.c"
  1015 ;; Parameters:    Size  Location     Type
  1016 ;;  x0              1    wreg     unsigned char 
  1017 ;;  x1              1    5[BANK1 ] unsigned char 
  1018 ;;  x2              1    6[BANK1 ] unsigned char 
  1019 ;;  y0              2    7[BANK1 ] unsigned short 
  1020 ;;  y1              2    9[BANK1 ] unsigned short 
  1021 ;; Auto vars:     Size  Location     Type
  1022 ;;  x0              1   78[BANK0 ] unsigned char 
  1023 ;; Return value:  Size  Location     Type
  1024 ;;                  2    5[BANK1 ] unsigned short 
  1025 ;; Registers used:
  1026 ;;		wreg, status,2, status,0, btemp+1, pclath, cstack
  1027 ;; Tracked objects:
  1028 ;;		On entry : 0/0
  1029 ;;		On exit  : 0/0
  1030 ;;		Unchanged: 0/0
  1031 ;; Data sizes:     COMMON   BANK0   BANK1   BANK3   BANK2
  1032 ;;      Params:         0       0       6       0       0
  1033 ;;      Locals:         0       1       0       0       0
  1034 ;;      Temps:          0       0       0       0       0
  1035 ;;      Totals:         0       1       6       0       0
  1036 ;;Total ram usage:        7 bytes
  1037 ;; Hardware stack levels used: 1
  1038 ;; Hardware stack levels required when called: 2
  1039 ;; This function calls:
  1040 ;;		___fladd
  1041 ;;		___fldiv
  1042 ;;		___flmul
  1043 ;;		___fltol
  1044 ;;		___xxtofl
  1045 ;; This function is called by:
  1046 ;;		_isr
  1047 ;; This function uses a non-reentrant model
  1048 ;;
  1049                           
  1050  0E94                     _map:	
  1051                           ;psect for function _map
  1052                           
  1053                           
  1054                           ;incstack = 0
  1055                           ; Regs used in _map: [wreg+status,2+status,0+btemp+1+pclath+cstack]
  1056                           ;map@x0 stored from wreg
  1057  0E94  1283               	bcf	3,5	;RP0=0, select bank0
  1058  0E95  1303               	bcf	3,6	;RP1=0, select bank0
  1059  0E96  00EE               	movwf	map@x0
  1060  0E97                     i1l1914:
  1061                           
  1062                           ;lab11slave2.c: 59:     return (unsigned short)(y0 +((float)(y1-y0)/(x2-x1))*(x0-x1));
  1063  0E97  1683               	bsf	3,5	;RP0=1, select bank1
  1064  0E98  1303               	bcf	3,6	;RP1=0, select bank1
  1065  0E99  0827               	movf	map@y0^(0+128),w
  1066  0E9A  00F0               	movwf	___xxtofl@val
  1067  0E9B  0828               	movf	(map@y0+1)^(0+128),w
  1068  0E9C  00F1               	movwf	___xxtofl@val+1
  1069  0E9D  01F2               	clrf	___xxtofl@val+2
  1070  0E9E  01F3               	clrf	___xxtofl@val+3
  1071  0E9F  3000               	movlw	0
  1072  0EA0  120A  158A  2746  120A  158A  	fcall	___xxtofl
  1073  0EA5  0873               	movf	?___xxtofl+3,w
  1074  0EA6  1283               	bcf	3,5	;RP0=0, select bank0
  1075  0EA7  1303               	bcf	3,6	;RP1=0, select bank0
  1076  0EA8  00DB               	movwf	___fladd@a+3
  1077  0EA9  0872               	movf	?___xxtofl+2,w
  1078  0EAA  00DA               	movwf	___fladd@a+2
  1079  0EAB  0871               	movf	?___xxtofl+1,w
  1080  0EAC  00D9               	movwf	___fladd@a+1
  1081  0EAD  0870               	movf	?___xxtofl,w
  1082  0EAE  00D8               	movwf	___fladd@a
  1083  0EAF  1683               	bsf	3,5	;RP0=1, select bank1
  1084  0EB0  1303               	bcf	3,6	;RP1=0, select bank1
  1085  0EB1  0827               	movf	map@y0^(0+128),w
  1086  0EB2  0229               	subwf	map@y1^(0+128),w
  1087  0EB3  00F0               	movwf	___xxtofl@val
  1088  0EB4  0828               	movf	(map@y0+1)^(0+128),w
  1089  0EB5  1C03               	skipc
  1090  0EB6  0A28               	incf	(map@y0+1)^(0+128),w
  1091  0EB7  022A               	subwf	(map@y1+1)^(0+128),w
  1092  0EB8  00F1               	movwf	___xxtofl@val+1
  1093  0EB9  01F2               	clrf	___xxtofl@val+2
  1094  0EBA  01F3               	clrf	___xxtofl@val+3
  1095  0EBB  3000               	movlw	0
  1096  0EBC  120A  158A  2746  120A  158A  	fcall	___xxtofl
  1097  0EC1  0873               	movf	?___xxtofl+3,w
  1098  0EC2  1283               	bcf	3,5	;RP0=0, select bank0
  1099  0EC3  1303               	bcf	3,6	;RP1=0, select bank0
  1100  0EC4  00A7               	movwf	___fldiv@b+3
  1101  0EC5  0872               	movf	?___xxtofl+2,w
  1102  0EC6  00A6               	movwf	___fldiv@b+2
  1103  0EC7  0871               	movf	?___xxtofl+1,w
  1104  0EC8  00A5               	movwf	___fldiv@b+1
  1105  0EC9  0870               	movf	?___xxtofl,w
  1106  0ECA  00A4               	movwf	___fldiv@b
  1107  0ECB  1683               	bsf	3,5	;RP0=1, select bank1
  1108  0ECC  1303               	bcf	3,6	;RP1=0, select bank1
  1109  0ECD  0825               	movf	map@x1^(0+128),w
  1110  0ECE  0226               	subwf	map@x2^(0+128),w
  1111  0ECF  00F0               	movwf	___xxtofl@val
  1112  0ED0  01F1               	clrf	___xxtofl@val+1
  1113  0ED1  1C03               	skipc
  1114  0ED2  03F1               	decf	___xxtofl@val+1,f
  1115  0ED3  01F2               	clrf	___xxtofl@val+2
  1116  0ED4  1BF1               	btfsc	___xxtofl@val+1,7
  1117  0ED5  03F2               	decf	___xxtofl@val+2,f
  1118  0ED6  0872               	movf	___xxtofl@val+2,w
  1119  0ED7  00F3               	movwf	___xxtofl@val+3
  1120  0ED8  3001               	movlw	1
  1121  0ED9  120A  158A  2746  120A  158A  	fcall	___xxtofl
  1122  0EDE  0873               	movf	?___xxtofl+3,w
  1123  0EDF  1283               	bcf	3,5	;RP0=0, select bank0
  1124  0EE0  1303               	bcf	3,6	;RP1=0, select bank0
  1125  0EE1  00A3               	movwf	___fldiv@a+3
  1126  0EE2  0872               	movf	?___xxtofl+2,w
  1127  0EE3  00A2               	movwf	___fldiv@a+2
  1128  0EE4  0871               	movf	?___xxtofl+1,w
  1129  0EE5  00A1               	movwf	___fldiv@a+1
  1130  0EE6  0870               	movf	?___xxtofl,w
  1131  0EE7  00A0               	movwf	___fldiv@a
  1132  0EE8  120A  118A  2605  120A  158A  	fcall	___fldiv
  1133  0EED  1283               	bcf	3,5	;RP0=0, select bank0
  1134  0EEE  1303               	bcf	3,6	;RP1=0, select bank0
  1135  0EEF  0823               	movf	?___fldiv+3,w
  1136  0EF0  00C1               	movwf	___flmul@a+3
  1137  0EF1  0822               	movf	?___fldiv+2,w
  1138  0EF2  00C0               	movwf	___flmul@a+2
  1139  0EF3  0821               	movf	?___fldiv+1,w
  1140  0EF4  00BF               	movwf	___flmul@a+1
  1141  0EF5  0820               	movf	?___fldiv,w
  1142  0EF6  00BE               	movwf	___flmul@a
  1143  0EF7  1683               	bsf	3,5	;RP0=1, select bank1
  1144  0EF8  1303               	bcf	3,6	;RP1=0, select bank1
  1145  0EF9  0825               	movf	map@x1^(0+128),w
  1146  0EFA  1283               	bcf	3,5	;RP0=0, select bank0
  1147  0EFB  1303               	bcf	3,6	;RP1=0, select bank0
  1148  0EFC  026E               	subwf	map@x0,w
  1149  0EFD  00F0               	movwf	___xxtofl@val
  1150  0EFE  01F1               	clrf	___xxtofl@val+1
  1151  0EFF  1C03               	skipc
  1152  0F00  03F1               	decf	___xxtofl@val+1,f
  1153  0F01  01F2               	clrf	___xxtofl@val+2
  1154  0F02  1BF1               	btfsc	___xxtofl@val+1,7
  1155  0F03  03F2               	decf	___xxtofl@val+2,f
  1156  0F04  0872               	movf	___xxtofl@val+2,w
  1157  0F05  00F3               	movwf	___xxtofl@val+3
  1158  0F06  3001               	movlw	1
  1159  0F07  120A  158A  2746  120A  158A  	fcall	___xxtofl
  1160  0F0C  0873               	movf	?___xxtofl+3,w
  1161  0F0D  1283               	bcf	3,5	;RP0=0, select bank0
  1162  0F0E  1303               	bcf	3,6	;RP1=0, select bank0
  1163  0F0F  00BD               	movwf	___flmul@b+3
  1164  0F10  0872               	movf	?___xxtofl+2,w
  1165  0F11  00BC               	movwf	___flmul@b+2
  1166  0F12  0871               	movf	?___xxtofl+1,w
  1167  0F13  00BB               	movwf	___flmul@b+1
  1168  0F14  0870               	movf	?___xxtofl,w
  1169  0F15  00BA               	movwf	___flmul@b
  1170  0F16  120A  118A  201C  120A  158A  	fcall	___flmul
  1171  0F1B  1283               	bcf	3,5	;RP0=0, select bank0
  1172  0F1C  1303               	bcf	3,6	;RP1=0, select bank0
  1173  0F1D  083D               	movf	?___flmul+3,w
  1174  0F1E  00D7               	movwf	___fladd@b+3
  1175  0F1F  083C               	movf	?___flmul+2,w
  1176  0F20  00D6               	movwf	___fladd@b+2
  1177  0F21  083B               	movf	?___flmul+1,w
  1178  0F22  00D5               	movwf	___fladd@b+1
  1179  0F23  083A               	movf	?___flmul,w
  1180  0F24  00D4               	movwf	___fladd@b
  1181  0F25  120A  118A  237D  120A  158A  	fcall	___fladd
  1182  0F2A  1283               	bcf	3,5	;RP0=0, select bank0
  1183  0F2B  1303               	bcf	3,6	;RP1=0, select bank0
  1184  0F2C  0857               	movf	?___fladd+3,w
  1185  0F2D  00EB               	movwf	___fltol@f1+3
  1186  0F2E  0856               	movf	?___fladd+2,w
  1187  0F2F  00EA               	movwf	___fltol@f1+2
  1188  0F30  0855               	movf	?___fladd+1,w
  1189  0F31  00E9               	movwf	___fltol@f1+1
  1190  0F32  0854               	movf	?___fladd,w
  1191  0F33  00E8               	movwf	___fltol@f1
  1192  0F34  120A  158A  25F8  120A  158A  	fcall	___fltol
  1193  0F39  1283               	bcf	3,5	;RP0=0, select bank0
  1194  0F3A  1303               	bcf	3,6	;RP1=0, select bank0
  1195  0F3B  0869               	movf	?___fltol+1,w
  1196  0F3C  1683               	bsf	3,5	;RP0=1, select bank1
  1197  0F3D  1303               	bcf	3,6	;RP1=0, select bank1
  1198  0F3E  00A6               	movwf	(?_map+1)^(0+128)
  1199  0F3F  1283               	bcf	3,5	;RP0=0, select bank0
  1200  0F40  1303               	bcf	3,6	;RP1=0, select bank0
  1201  0F41  0868               	movf	?___fltol,w
  1202  0F42  1683               	bsf	3,5	;RP0=1, select bank1
  1203  0F43  1303               	bcf	3,6	;RP1=0, select bank1
  1204  0F44  00A5               	movwf	?_map^(0+128)
  1205  0F45                     i1l82:
  1206  0F45  0008               	return
  1207  0F46                     __end_of_map:
  1208                           
  1209                           	psect	text4
  1210  0F46                     __ptext4:	
  1211 ;; *************** function ___xxtofl *****************
  1212 ;; Defined at:
  1213 ;;		line 10 in file "C:\Program Files\Microchip\xc8\v2.36\pic\sources\c90\common\xxtofl.c"
  1214 ;; Parameters:    Size  Location     Type
  1215 ;;  sign            1    wreg     unsigned char 
  1216 ;;  val             4    0[COMMON] long 
  1217 ;; Auto vars:     Size  Location     Type
  1218 ;;  sign            1    8[COMMON] unsigned char 
  1219 ;;  arg             4   10[COMMON] unsigned long 
  1220 ;;  exp             1    9[COMMON] unsigned char 
  1221 ;; Return value:  Size  Location     Type
  1222 ;;                  4    0[COMMON] unsigned char 
  1223 ;; Registers used:
  1224 ;;		wreg, status,2, status,0
  1225 ;; Tracked objects:
  1226 ;;		On entry : 0/0
  1227 ;;		On exit  : 0/0
  1228 ;;		Unchanged: 0/0
  1229 ;; Data sizes:     COMMON   BANK0   BANK1   BANK3   BANK2
  1230 ;;      Params:         4       0       0       0       0
  1231 ;;      Locals:         6       0       0       0       0
  1232 ;;      Temps:          4       0       0       0       0
  1233 ;;      Totals:        14       0       0       0       0
  1234 ;;Total ram usage:       14 bytes
  1235 ;; Hardware stack levels used: 1
  1236 ;; This function calls:
  1237 ;;		Nothing
  1238 ;; This function is called by:
  1239 ;;		_map
  1240 ;; This function uses a non-reentrant model
  1241 ;;
  1242                           
  1243  0F46                     ___xxtofl:	
  1244                           ;psect for function ___xxtofl
  1245                           
  1246                           
  1247                           ;incstack = 0
  1248                           ; Regs used in ___xxtofl: [wreg+status,2+status,0]
  1249                           ;___xxtofl@sign stored from wreg
  1250  0F46  00F8               	movwf	___xxtofl@sign
  1251  0F47                     i1l1830:
  1252  0F47  0878               	movf	___xxtofl@sign,w
  1253  0F48  1903               	btfsc	3,2
  1254  0F49  2F4B               	goto	u268_21
  1255  0F4A  2F4C               	goto	u268_20
  1256  0F4B                     u268_21:
  1257  0F4B  2F60               	goto	i1l1836
  1258  0F4C                     u268_20:
  1259  0F4C                     i1l1832:
  1260  0F4C  1FF3               	btfss	___xxtofl@val+3,7
  1261  0F4D  2F4F               	goto	u269_21
  1262  0F4E  2F50               	goto	u269_20
  1263  0F4F                     u269_21:
  1264  0F4F  2F60               	goto	i1l1836
  1265  0F50                     u269_20:
  1266  0F50                     i1l1834:
  1267  0F50  0970               	comf	___xxtofl@val,w
  1268  0F51  00FA               	movwf	___xxtofl@arg
  1269  0F52  0971               	comf	___xxtofl@val+1,w
  1270  0F53  00FB               	movwf	___xxtofl@arg+1
  1271  0F54  0972               	comf	___xxtofl@val+2,w
  1272  0F55  00FC               	movwf	___xxtofl@arg+2
  1273  0F56  0973               	comf	___xxtofl@val+3,w
  1274  0F57  00FD               	movwf	___xxtofl@arg+3
  1275  0F58  0AFA               	incf	___xxtofl@arg,f
  1276  0F59  1903               	skipnz
  1277  0F5A  0AFB               	incf	___xxtofl@arg+1,f
  1278  0F5B  1903               	skipnz
  1279  0F5C  0AFC               	incf	___xxtofl@arg+2,f
  1280  0F5D  1903               	skipnz
  1281  0F5E  0AFD               	incf	___xxtofl@arg+3,f
  1282  0F5F  2F68               	goto	i1l601
  1283  0F60                     i1l1836:
  1284  0F60  0873               	movf	___xxtofl@val+3,w
  1285  0F61  00FD               	movwf	___xxtofl@arg+3
  1286  0F62  0872               	movf	___xxtofl@val+2,w
  1287  0F63  00FC               	movwf	___xxtofl@arg+2
  1288  0F64  0871               	movf	___xxtofl@val+1,w
  1289  0F65  00FB               	movwf	___xxtofl@arg+1
  1290  0F66  0870               	movf	___xxtofl@val,w
  1291  0F67  00FA               	movwf	___xxtofl@arg
  1292  0F68                     i1l601:
  1293  0F68  0873               	movf	___xxtofl@val+3,w
  1294  0F69  0472               	iorwf	___xxtofl@val+2,w
  1295  0F6A  0471               	iorwf	___xxtofl@val+1,w
  1296  0F6B  0470               	iorwf	___xxtofl@val,w
  1297  0F6C  1D03               	skipz
  1298  0F6D  2F6F               	goto	u270_21
  1299  0F6E  2F70               	goto	u270_20
  1300  0F6F                     u270_21:
  1301  0F6F  2F79               	goto	i1l1842
  1302  0F70                     u270_20:
  1303  0F70                     i1l1838:
  1304  0F70  3000               	movlw	0
  1305  0F71  00F3               	movwf	?___xxtofl+3
  1306  0F72  3000               	movlw	0
  1307  0F73  00F2               	movwf	?___xxtofl+2
  1308  0F74  3000               	movlw	0
  1309  0F75  00F1               	movwf	?___xxtofl+1
  1310  0F76  3000               	movlw	0
  1311  0F77  00F0               	movwf	?___xxtofl
  1312  0F78  2FFF               	goto	i1l603
  1313  0F79                     i1l1842:
  1314  0F79  3096               	movlw	150
  1315  0F7A  00F4               	movwf	??___xxtofl
  1316  0F7B  0874               	movf	??___xxtofl,w
  1317  0F7C  00F9               	movwf	___xxtofl@exp
  1318  0F7D  2F8B               	goto	i1l1846
  1319  0F7E                     i1l1844:
  1320  0F7E  3001               	movlw	1
  1321  0F7F  00F4               	movwf	??___xxtofl
  1322  0F80  0874               	movf	??___xxtofl,w
  1323  0F81  07F9               	addwf	___xxtofl@exp,f
  1324  0F82  3001               	movlw	1
  1325  0F83                     u271_25:
  1326  0F83  1003               	clrc
  1327  0F84  0CFD               	rrf	___xxtofl@arg+3,f
  1328  0F85  0CFC               	rrf	___xxtofl@arg+2,f
  1329  0F86  0CFB               	rrf	___xxtofl@arg+1,f
  1330  0F87  0CFA               	rrf	___xxtofl@arg,f
  1331  0F88  3EFF               	addlw	-1
  1332  0F89  1D03               	skipz
  1333  0F8A  2F83               	goto	u271_25
  1334  0F8B                     i1l1846:
  1335  0F8B  30FE               	movlw	254
  1336  0F8C  057D               	andwf	___xxtofl@arg+3,w
  1337  0F8D  1D03               	btfss	3,2
  1338  0F8E  2F90               	goto	u272_21
  1339  0F8F  2F91               	goto	u272_20
  1340  0F90                     u272_21:
  1341  0F90  2F7E               	goto	i1l1844
  1342  0F91                     u272_20:
  1343  0F91  2FAD               	goto	i1l607
  1344  0F92                     i1l1848:
  1345  0F92  3001               	movlw	1
  1346  0F93  00F4               	movwf	??___xxtofl
  1347  0F94  0874               	movf	??___xxtofl,w
  1348  0F95  07F9               	addwf	___xxtofl@exp,f
  1349  0F96                     i1l1850:
  1350  0F96  3001               	movlw	1
  1351  0F97  07FA               	addwf	___xxtofl@arg,f
  1352  0F98  3000               	movlw	0
  1353  0F99  1803               	skipnc
  1354  0F9A  3001               	movlw	1
  1355  0F9B  07FB               	addwf	___xxtofl@arg+1,f
  1356  0F9C  3000               	movlw	0
  1357  0F9D  1803               	skipnc
  1358  0F9E  3001               	movlw	1
  1359  0F9F  07FC               	addwf	___xxtofl@arg+2,f
  1360  0FA0  3000               	movlw	0
  1361  0FA1  1803               	skipnc
  1362  0FA2  3001               	movlw	1
  1363  0FA3  07FD               	addwf	___xxtofl@arg+3,f
  1364  0FA4                     i1l1852:
  1365  0FA4  3001               	movlw	1
  1366  0FA5                     u273_25:
  1367  0FA5  1003               	clrc
  1368  0FA6  0CFD               	rrf	___xxtofl@arg+3,f
  1369  0FA7  0CFC               	rrf	___xxtofl@arg+2,f
  1370  0FA8  0CFB               	rrf	___xxtofl@arg+1,f
  1371  0FA9  0CFA               	rrf	___xxtofl@arg,f
  1372  0FAA  3EFF               	addlw	-1
  1373  0FAB  1D03               	skipz
  1374  0FAC  2FA5               	goto	u273_25
  1375  0FAD                     i1l607:
  1376  0FAD  30FF               	movlw	255
  1377  0FAE  057D               	andwf	___xxtofl@arg+3,w
  1378  0FAF  1D03               	btfss	3,2
  1379  0FB0  2FB2               	goto	u274_21
  1380  0FB1  2FB3               	goto	u274_20
  1381  0FB2                     u274_21:
  1382  0FB2  2F92               	goto	i1l1848
  1383  0FB3                     u274_20:
  1384  0FB3  2FBF               	goto	i1l1856
  1385  0FB4                     i1l1854:
  1386  0FB4  3001               	movlw	1
  1387  0FB5  02F9               	subwf	___xxtofl@exp,f
  1388  0FB6  3001               	movlw	1
  1389  0FB7  00F4               	movwf	??___xxtofl
  1390  0FB8                     u275_25:
  1391  0FB8  1003               	clrc
  1392  0FB9  0DFA               	rlf	___xxtofl@arg,f
  1393  0FBA  0DFB               	rlf	___xxtofl@arg+1,f
  1394  0FBB  0DFC               	rlf	___xxtofl@arg+2,f
  1395  0FBC  0DFD               	rlf	___xxtofl@arg+3,f
  1396  0FBD  0BF4               	decfsz	??___xxtofl,f
  1397  0FBE  2FB8               	goto	u275_25
  1398  0FBF                     i1l1856:
  1399  0FBF  1BFC               	btfsc	___xxtofl@arg+2,7
  1400  0FC0  2FC2               	goto	u276_21
  1401  0FC1  2FC3               	goto	u276_20
  1402  0FC2                     u276_21:
  1403  0FC2  2FC9               	goto	i1l614
  1404  0FC3                     u276_20:
  1405  0FC3                     i1l1858:
  1406  0FC3  3002               	movlw	2
  1407  0FC4  0279               	subwf	___xxtofl@exp,w
  1408  0FC5  1803               	skipnc
  1409  0FC6  2FC8               	goto	u277_21
  1410  0FC7  2FC9               	goto	u277_20
  1411  0FC8                     u277_21:
  1412  0FC8  2FB4               	goto	i1l1854
  1413  0FC9                     u277_20:
  1414  0FC9                     i1l614:
  1415  0FC9  1879               	btfsc	___xxtofl@exp,0
  1416  0FCA  2FCC               	goto	u278_21
  1417  0FCB  2FCD               	goto	u278_20
  1418  0FCC                     u278_21:
  1419  0FCC  2FD5               	goto	i1l615
  1420  0FCD                     u278_20:
  1421  0FCD                     i1l1860:
  1422  0FCD  30FF               	movlw	255
  1423  0FCE  05FA               	andwf	___xxtofl@arg,f
  1424  0FCF  30FF               	movlw	255
  1425  0FD0  05FB               	andwf	___xxtofl@arg+1,f
  1426  0FD1  307F               	movlw	127
  1427  0FD2  05FC               	andwf	___xxtofl@arg+2,f
  1428  0FD3  30FF               	movlw	255
  1429  0FD4  05FD               	andwf	___xxtofl@arg+3,f
  1430  0FD5                     i1l615:
  1431  0FD5  1003               	clrc
  1432  0FD6  0CF9               	rrf	___xxtofl@exp,f
  1433  0FD7                     i1l1862:
  1434  0FD7  0879               	movf	___xxtofl@exp,w
  1435  0FD8  00F4               	movwf	??___xxtofl
  1436  0FD9  01F5               	clrf	??___xxtofl+1
  1437  0FDA  01F6               	clrf	??___xxtofl+2
  1438  0FDB  01F7               	clrf	??___xxtofl+3
  1439  0FDC  3018               	movlw	24
  1440  0FDD                     u279_25:
  1441  0FDD  1003               	clrc
  1442  0FDE  0DF4               	rlf	??___xxtofl,f
  1443  0FDF  0DF5               	rlf	??___xxtofl+1,f
  1444  0FE0  0DF6               	rlf	??___xxtofl+2,f
  1445  0FE1  0DF7               	rlf	??___xxtofl+3,f
  1446  0FE2                     u279_20:
  1447  0FE2  3EFF               	addlw	-1
  1448  0FE3  1D03               	skipz
  1449  0FE4  2FDD               	goto	u279_25
  1450  0FE5  0874               	movf	??___xxtofl,w
  1451  0FE6  04FA               	iorwf	___xxtofl@arg,f
  1452  0FE7  0875               	movf	??___xxtofl+1,w
  1453  0FE8  04FB               	iorwf	___xxtofl@arg+1,f
  1454  0FE9  0876               	movf	??___xxtofl+2,w
  1455  0FEA  04FC               	iorwf	___xxtofl@arg+2,f
  1456  0FEB  0877               	movf	??___xxtofl+3,w
  1457  0FEC  04FD               	iorwf	___xxtofl@arg+3,f
  1458  0FED                     i1l1864:
  1459  0FED  0878               	movf	___xxtofl@sign,w
  1460  0FEE  1903               	btfsc	3,2
  1461  0FEF  2FF1               	goto	u280_21
  1462  0FF0  2FF2               	goto	u280_20
  1463  0FF1                     u280_21:
  1464  0FF1  2FF7               	goto	i1l1870
  1465  0FF2                     u280_20:
  1466  0FF2                     i1l1866:
  1467  0FF2  1FF3               	btfss	___xxtofl@val+3,7
  1468  0FF3  2FF5               	goto	u281_21
  1469  0FF4  2FF6               	goto	u281_20
  1470  0FF5                     u281_21:
  1471  0FF5  2FF7               	goto	i1l1870
  1472  0FF6                     u281_20:
  1473  0FF6                     i1l1868:
  1474  0FF6  17FD               	bsf	___xxtofl@arg+3,7
  1475  0FF7                     i1l1870:
  1476  0FF7  087D               	movf	___xxtofl@arg+3,w
  1477  0FF8  00F3               	movwf	?___xxtofl+3
  1478  0FF9  087C               	movf	___xxtofl@arg+2,w
  1479  0FFA  00F2               	movwf	?___xxtofl+2
  1480  0FFB  087B               	movf	___xxtofl@arg+1,w
  1481  0FFC  00F1               	movwf	?___xxtofl+1
  1482  0FFD  087A               	movf	___xxtofl@arg,w
  1483  0FFE  00F0               	movwf	?___xxtofl
  1484  0FFF                     i1l603:
  1485  0FFF  0008               	return
  1486  1000                     __end_of___xxtofl:
  1487                           
  1488                           	psect	text5
  1489  0DF8                     __ptext5:	
  1490 ;; *************** function ___fltol *****************
  1491 ;; Defined at:
  1492 ;;		line 43 in file "C:\Program Files\Microchip\xc8\v2.36\pic\sources\c90\common\fltol.c"
  1493 ;; Parameters:    Size  Location     Type
  1494 ;;  f1              4   72[BANK0 ] unsigned char 
  1495 ;; Auto vars:     Size  Location     Type
  1496 ;;  exp1            1   77[BANK0 ] unsigned char 
  1497 ;;  sign1           1   76[BANK0 ] unsigned char 
  1498 ;; Return value:  Size  Location     Type
  1499 ;;                  4   72[BANK0 ] long 
  1500 ;; Registers used:
  1501 ;;		wreg, status,2, status,0
  1502 ;; Tracked objects:
  1503 ;;		On entry : 0/0
  1504 ;;		On exit  : 0/0
  1505 ;;		Unchanged: 0/0
  1506 ;; Data sizes:     COMMON   BANK0   BANK1   BANK3   BANK2
  1507 ;;      Params:         0       4       0       0       0
  1508 ;;      Locals:         0       2       0       0       0
  1509 ;;      Temps:          0       0       5       0       0
  1510 ;;      Totals:         0       6       5       0       0
  1511 ;;Total ram usage:       11 bytes
  1512 ;; Hardware stack levels used: 1
  1513 ;; This function calls:
  1514 ;;		Nothing
  1515 ;; This function is called by:
  1516 ;;		_map
  1517 ;; This function uses a non-reentrant model
  1518 ;;
  1519                           
  1520  0DF8                     ___fltol:	
  1521                           ;psect for function ___fltol
  1522                           
  1523  0DF8                     i1l1318:	
  1524                           ;incstack = 0
  1525                           ; Regs used in ___fltol: [wreg+status,2+status,0]
  1526                           
  1527  0DF8  1003               	clrc
  1528  0DF9  1283               	bcf	3,5	;RP0=0, select bank0
  1529  0DFA  1303               	bcf	3,6	;RP1=0, select bank0
  1530  0DFB  0D6A               	rlf	___fltol@f1+2,w
  1531  0DFC  0D6B               	rlf	___fltol@f1+3,w
  1532  0DFD  1683               	bsf	3,5	;RP0=1, select bank1
  1533  0DFE  1303               	bcf	3,6	;RP1=0, select bank1
  1534  0DFF  00A0               	movwf	??___fltol^(0+128)
  1535  0E00  0820               	movf	??___fltol^(0+128),w
  1536  0E01  1283               	bcf	3,5	;RP0=0, select bank0
  1537  0E02  1303               	bcf	3,6	;RP1=0, select bank0
  1538  0E03  00ED               	movwf	___fltol@exp1
  1539  0E04  086D               	movf	___fltol@exp1,w
  1540  0E05  1D03               	btfss	3,2
  1541  0E06  2E08               	goto	u146_21
  1542  0E07  2E09               	goto	u146_20
  1543  0E08                     u146_21:
  1544  0E08  2E12               	goto	i1l1324
  1545  0E09                     u146_20:
  1546  0E09                     i1l1320:
  1547  0E09  3000               	movlw	0
  1548  0E0A  00EB               	movwf	?___fltol+3
  1549  0E0B  3000               	movlw	0
  1550  0E0C  00EA               	movwf	?___fltol+2
  1551  0E0D  3000               	movlw	0
  1552  0E0E  00E9               	movwf	?___fltol+1
  1553  0E0F  3000               	movlw	0
  1554  0E10  00E8               	movwf	?___fltol
  1555  0E11  2E93               	goto	i1l354
  1556  0E12                     i1l1324:
  1557  0E12  0868               	movf	___fltol@f1,w
  1558  0E13  1683               	bsf	3,5	;RP0=1, select bank1
  1559  0E14  1303               	bcf	3,6	;RP1=0, select bank1
  1560  0E15  00A0               	movwf	??___fltol^(0+128)
  1561  0E16  1283               	bcf	3,5	;RP0=0, select bank0
  1562  0E17  1303               	bcf	3,6	;RP1=0, select bank0
  1563  0E18  0869               	movf	___fltol@f1+1,w
  1564  0E19  1683               	bsf	3,5	;RP0=1, select bank1
  1565  0E1A  1303               	bcf	3,6	;RP1=0, select bank1
  1566  0E1B  00A1               	movwf	(??___fltol^(0+128)+1)
  1567  0E1C  1283               	bcf	3,5	;RP0=0, select bank0
  1568  0E1D  1303               	bcf	3,6	;RP1=0, select bank0
  1569  0E1E  086A               	movf	___fltol@f1+2,w
  1570  0E1F  1683               	bsf	3,5	;RP0=1, select bank1
  1571  0E20  1303               	bcf	3,6	;RP1=0, select bank1
  1572  0E21  00A2               	movwf	(??___fltol^(0+128)+2)
  1573  0E22  1283               	bcf	3,5	;RP0=0, select bank0
  1574  0E23  1303               	bcf	3,6	;RP1=0, select bank0
  1575  0E24  086B               	movf	___fltol@f1+3,w
  1576  0E25  1683               	bsf	3,5	;RP0=1, select bank1
  1577  0E26  1303               	bcf	3,6	;RP1=0, select bank1
  1578  0E27  00A3               	movwf	(??___fltol^(0+128)+3)
  1579  0E28  301F               	movlw	31
  1580  0E29                     u147_25:
  1581  0E29  1003               	clrc
  1582  0E2A  0CA3               	rrf	(??___fltol^(0+128)+3),f
  1583  0E2B  0CA2               	rrf	(??___fltol^(0+128)+2),f
  1584  0E2C  0CA1               	rrf	(??___fltol^(0+128)+1),f
  1585  0E2D  0CA0               	rrf	??___fltol^(0+128),f
  1586  0E2E                     u147_20:
  1587  0E2E  3EFF               	addlw	-1
  1588  0E2F  1D03               	skipz
  1589  0E30  2E29               	goto	u147_25
  1590  0E31  0820               	movf	??___fltol^(0+128),w
  1591  0E32  00A4               	movwf	(??___fltol+4)^(0+128)
  1592  0E33  0824               	movf	(??___fltol+4)^(0+128),w
  1593  0E34  1283               	bcf	3,5	;RP0=0, select bank0
  1594  0E35  1303               	bcf	3,6	;RP1=0, select bank0
  1595  0E36  00EC               	movwf	___fltol@sign1
  1596  0E37                     i1l1326:
  1597  0E37  17EA               	bsf	___fltol@f1+2,7
  1598  0E38                     i1l1328:
  1599  0E38  30FF               	movlw	255
  1600  0E39  05E8               	andwf	___fltol@f1,f
  1601  0E3A  30FF               	movlw	255
  1602  0E3B  05E9               	andwf	___fltol@f1+1,f
  1603  0E3C  30FF               	movlw	255
  1604  0E3D  05EA               	andwf	___fltol@f1+2,f
  1605  0E3E  3000               	movlw	0
  1606  0E3F  05EB               	andwf	___fltol@f1+3,f
  1607  0E40                     i1l1330:
  1608  0E40  3096               	movlw	150
  1609  0E41  02ED               	subwf	___fltol@exp1,f
  1610  0E42                     i1l1332:
  1611  0E42  1FED               	btfss	___fltol@exp1,7
  1612  0E43  2E45               	goto	u148_21
  1613  0E44  2E46               	goto	u148_20
  1614  0E45                     u148_21:
  1615  0E45  2E64               	goto	i1l1342
  1616  0E46                     u148_20:
  1617  0E46                     i1l1334:
  1618  0E46  086D               	movf	___fltol@exp1,w
  1619  0E47  3A80               	xorlw	128
  1620  0E48  3E97               	addlw	151
  1621  0E49  1803               	skipnc
  1622  0E4A  2E4C               	goto	u149_21
  1623  0E4B  2E4D               	goto	u149_20
  1624  0E4C                     u149_21:
  1625  0E4C  2E4E               	goto	i1l1340
  1626  0E4D                     u149_20:
  1627  0E4D  2E09               	goto	i1l1320
  1628  0E4E                     i1l1340:
  1629  0E4E  3001               	movlw	1
  1630  0E4F                     u150_25:
  1631  0E4F  1003               	clrc
  1632  0E50  0CEB               	rrf	___fltol@f1+3,f
  1633  0E51  0CEA               	rrf	___fltol@f1+2,f
  1634  0E52  0CE9               	rrf	___fltol@f1+1,f
  1635  0E53  0CE8               	rrf	___fltol@f1,f
  1636  0E54  3EFF               	addlw	-1
  1637  0E55  1D03               	skipz
  1638  0E56  2E4F               	goto	u150_25
  1639  0E57  3001               	movlw	1
  1640  0E58  1683               	bsf	3,5	;RP0=1, select bank1
  1641  0E59  1303               	bcf	3,6	;RP1=0, select bank1
  1642  0E5A  00A0               	movwf	??___fltol^(0+128)
  1643  0E5B  0820               	movf	??___fltol^(0+128),w
  1644  0E5C  1283               	bcf	3,5	;RP0=0, select bank0
  1645  0E5D  1303               	bcf	3,6	;RP1=0, select bank0
  1646  0E5E  07ED               	addwf	___fltol@exp1,f
  1647  0E5F  1D03               	btfss	3,2
  1648  0E60  2E62               	goto	u151_21
  1649  0E61  2E63               	goto	u151_20
  1650  0E62                     u151_21:
  1651  0E62  2E4E               	goto	i1l1340
  1652  0E63                     u151_20:
  1653  0E63  2E83               	goto	i1l1350
  1654  0E64                     i1l1342:
  1655  0E64  3020               	movlw	32
  1656  0E65  026D               	subwf	___fltol@exp1,w
  1657  0E66  1C03               	skipc
  1658  0E67  2E69               	goto	u152_21
  1659  0E68  2E6A               	goto	u152_20
  1660  0E69                     u152_21:
  1661  0E69  2E7E               	goto	i1l361
  1662  0E6A                     u152_20:
  1663  0E6A  2E09               	goto	i1l1320
  1664  0E6B                     i1l1348:
  1665  0E6B  3001               	movlw	1
  1666  0E6C  1683               	bsf	3,5	;RP0=1, select bank1
  1667  0E6D  1303               	bcf	3,6	;RP1=0, select bank1
  1668  0E6E  00A0               	movwf	??___fltol^(0+128)
  1669  0E6F                     u153_25:
  1670  0E6F  1003               	clrc
  1671  0E70  1283               	bcf	3,5	;RP0=0, select bank0
  1672  0E71  1303               	bcf	3,6	;RP1=0, select bank0
  1673  0E72  0DE8               	rlf	___fltol@f1,f
  1674  0E73  0DE9               	rlf	___fltol@f1+1,f
  1675  0E74  0DEA               	rlf	___fltol@f1+2,f
  1676  0E75  0DEB               	rlf	___fltol@f1+3,f
  1677  0E76  1683               	bsf	3,5	;RP0=1, select bank1
  1678  0E77  1303               	bcf	3,6	;RP1=0, select bank1
  1679  0E78  0BA0               	decfsz	??___fltol^(0+128),f
  1680  0E79  2E6F               	goto	u153_25
  1681  0E7A  3001               	movlw	1
  1682  0E7B  1283               	bcf	3,5	;RP0=0, select bank0
  1683  0E7C  1303               	bcf	3,6	;RP1=0, select bank0
  1684  0E7D  02ED               	subwf	___fltol@exp1,f
  1685  0E7E                     i1l361:
  1686  0E7E  086D               	movf	___fltol@exp1,w
  1687  0E7F  1D03               	btfss	3,2
  1688  0E80  2E82               	goto	u154_21
  1689  0E81  2E83               	goto	u154_20
  1690  0E82                     u154_21:
  1691  0E82  2E6B               	goto	i1l1348
  1692  0E83                     u154_20:
  1693  0E83                     i1l1350:
  1694  0E83  086C               	movf	___fltol@sign1,w
  1695  0E84  1903               	btfsc	3,2
  1696  0E85  2E87               	goto	u155_21
  1697  0E86  2E88               	goto	u155_20
  1698  0E87                     u155_21:
  1699  0E87  2E93               	goto	i1l364
  1700  0E88                     u155_20:
  1701  0E88                     i1l1352:
  1702  0E88  09E8               	comf	___fltol@f1,f
  1703  0E89  09E9               	comf	___fltol@f1+1,f
  1704  0E8A  09EA               	comf	___fltol@f1+2,f
  1705  0E8B  09EB               	comf	___fltol@f1+3,f
  1706  0E8C  0AE8               	incf	___fltol@f1,f
  1707  0E8D  1903               	skipnz
  1708  0E8E  0AE9               	incf	___fltol@f1+1,f
  1709  0E8F  1903               	skipnz
  1710  0E90  0AEA               	incf	___fltol@f1+2,f
  1711  0E91  1903               	skipnz
  1712  0E92  0AEB               	incf	___fltol@f1+3,f
  1713  0E93                     i1l364:
  1714  0E93                     i1l354:
  1715  0E93  0008               	return
  1716  0E94                     __end_of___fltol:
  1717                           
  1718                           	psect	text6
  1719  001C                     __ptext6:	
  1720 ;; *************** function ___flmul *****************
  1721 ;; Defined at:
  1722 ;;		line 8 in file "C:\Program Files\Microchip\xc8\v2.36\pic\sources\c90\common\sprcmul.c"
  1723 ;; Parameters:    Size  Location     Type
  1724 ;;  b               4   26[BANK0 ] long 
  1725 ;;  a               4   30[BANK0 ] long 
  1726 ;; Auto vars:     Size  Location     Type
  1727 ;;  prod            4   46[BANK0 ] struct .
  1728 ;;  grs             4   40[BANK0 ] unsigned long 
  1729 ;;  temp            2   50[BANK0 ] struct .
  1730 ;;  bexp            1   45[BANK0 ] unsigned char 
  1731 ;;  aexp            1   44[BANK0 ] unsigned char 
  1732 ;;  sign            1   39[BANK0 ] unsigned char 
  1733 ;; Return value:  Size  Location     Type
  1734 ;;                  4   26[BANK0 ] unsigned char 
  1735 ;; Registers used:
  1736 ;;		wreg, status,2, status,0, btemp+1, pclath, cstack
  1737 ;; Tracked objects:
  1738 ;;		On entry : 0/0
  1739 ;;		On exit  : 0/0
  1740 ;;		Unchanged: 0/0
  1741 ;; Data sizes:     COMMON   BANK0   BANK1   BANK3   BANK2
  1742 ;;      Params:         0       8       0       0       0
  1743 ;;      Locals:         0      13       0       0       0
  1744 ;;      Temps:          0       5       0       0       0
  1745 ;;      Totals:         0      26       0       0       0
  1746 ;;Total ram usage:       26 bytes
  1747 ;; Hardware stack levels used: 1
  1748 ;; Hardware stack levels required when called: 1
  1749 ;; This function calls:
  1750 ;;		__Umul8_16
  1751 ;; This function is called by:
  1752 ;;		_map
  1753 ;; This function uses a non-reentrant model
  1754 ;;
  1755                           
  1756  001C                     ___flmul:	
  1757                           ;psect for function ___flmul
  1758                           
  1759  001C                     i1l1690:	
  1760                           ;incstack = 0
  1761                           ; Regs used in ___flmul: [wreg+status,2+status,0+btemp+1+pclath+cstack]
  1762                           
  1763  001C  1283               	bcf	3,5	;RP0=0, select bank0
  1764  001D  1303               	bcf	3,6	;RP1=0, select bank0
  1765  001E  083D               	movf	___flmul@b+3,w
  1766  001F  3980               	andlw	128
  1767  0020  00C2               	movwf	??___flmul
  1768  0021  0842               	movf	??___flmul,w
  1769  0022  00C7               	movwf	___flmul@sign
  1770  0023                     i1l1692:
  1771  0023  083D               	movf	___flmul@b+3,w
  1772  0024  00C2               	movwf	??___flmul
  1773  0025  0742               	addwf	??___flmul,w
  1774  0026  00C3               	movwf	??___flmul+1
  1775  0027  0843               	movf	??___flmul+1,w
  1776  0028  00CD               	movwf	___flmul@bexp
  1777  0029                     i1l1694:
  1778  0029  1FBC               	btfss	___flmul@b+2,7
  1779  002A  282C               	goto	u231_21
  1780  002B  282D               	goto	u231_20
  1781  002C                     u231_21:
  1782  002C  282E               	goto	i1l1698
  1783  002D                     u231_20:
  1784  002D                     i1l1696:
  1785  002D  144D               	bsf	___flmul@bexp,0
  1786  002E                     i1l1698:
  1787  002E  084D               	movf	___flmul@bexp,w
  1788  002F  1903               	btfsc	3,2
  1789  0030  2832               	goto	u232_21
  1790  0031  2833               	goto	u232_20
  1791  0032                     u232_21:
  1792  0032  2842               	goto	i1l1706
  1793  0033                     u232_20:
  1794  0033                     i1l1700:
  1795  0033  0A4D               	incf	___flmul@bexp,w
  1796  0034  1D03               	btfss	3,2
  1797  0035  2837               	goto	u233_21
  1798  0036  2838               	goto	u233_20
  1799  0037                     u233_21:
  1800  0037  2840               	goto	i1l1704
  1801  0038                     u233_20:
  1802  0038                     i1l1702:
  1803  0038  3000               	movlw	0
  1804  0039  00BD               	movwf	___flmul@b+3
  1805  003A  3000               	movlw	0
  1806  003B  00BC               	movwf	___flmul@b+2
  1807  003C  3000               	movlw	0
  1808  003D  00BB               	movwf	___flmul@b+1
  1809  003E  3000               	movlw	0
  1810  003F  00BA               	movwf	___flmul@b
  1811  0040                     i1l1704:
  1812  0040  17BC               	bsf	___flmul@b+2,7
  1813  0041  284A               	goto	i1l1708
  1814  0042                     i1l1706:
  1815  0042  3000               	movlw	0
  1816  0043  00BD               	movwf	___flmul@b+3
  1817  0044  3000               	movlw	0
  1818  0045  00BC               	movwf	___flmul@b+2
  1819  0046  3000               	movlw	0
  1820  0047  00BB               	movwf	___flmul@b+1
  1821  0048  3000               	movlw	0
  1822  0049  00BA               	movwf	___flmul@b
  1823  004A                     i1l1708:
  1824  004A  0841               	movf	___flmul@a+3,w
  1825  004B  3980               	andlw	128
  1826  004C  00C2               	movwf	??___flmul
  1827  004D  0842               	movf	??___flmul,w
  1828  004E  06C7               	xorwf	___flmul@sign,f
  1829  004F                     i1l1710:
  1830  004F  0841               	movf	___flmul@a+3,w
  1831  0050  00C2               	movwf	??___flmul
  1832  0051  0742               	addwf	??___flmul,w
  1833  0052  00C3               	movwf	??___flmul+1
  1834  0053  0843               	movf	??___flmul+1,w
  1835  0054  00CC               	movwf	___flmul@aexp
  1836  0055                     i1l1712:
  1837  0055  1FC0               	btfss	___flmul@a+2,7
  1838  0056  2858               	goto	u234_21
  1839  0057  2859               	goto	u234_20
  1840  0058                     u234_21:
  1841  0058  285A               	goto	i1l1716
  1842  0059                     u234_20:
  1843  0059                     i1l1714:
  1844  0059  144C               	bsf	___flmul@aexp,0
  1845  005A                     i1l1716:
  1846  005A  084C               	movf	___flmul@aexp,w
  1847  005B  1903               	btfsc	3,2
  1848  005C  285E               	goto	u235_21
  1849  005D  285F               	goto	u235_20
  1850  005E                     u235_21:
  1851  005E  286E               	goto	i1l1724
  1852  005F                     u235_20:
  1853  005F                     i1l1718:
  1854  005F  0A4C               	incf	___flmul@aexp,w
  1855  0060  1D03               	btfss	3,2
  1856  0061  2863               	goto	u236_21
  1857  0062  2864               	goto	u236_20
  1858  0063                     u236_21:
  1859  0063  286C               	goto	i1l1722
  1860  0064                     u236_20:
  1861  0064                     i1l1720:
  1862  0064  3000               	movlw	0
  1863  0065  00C1               	movwf	___flmul@a+3
  1864  0066  3000               	movlw	0
  1865  0067  00C0               	movwf	___flmul@a+2
  1866  0068  3000               	movlw	0
  1867  0069  00BF               	movwf	___flmul@a+1
  1868  006A  3000               	movlw	0
  1869  006B  00BE               	movwf	___flmul@a
  1870  006C                     i1l1722:
  1871  006C  17C0               	bsf	___flmul@a+2,7
  1872  006D  2876               	goto	i1l1726
  1873  006E                     i1l1724:
  1874  006E  3000               	movlw	0
  1875  006F  00C1               	movwf	___flmul@a+3
  1876  0070  3000               	movlw	0
  1877  0071  00C0               	movwf	___flmul@a+2
  1878  0072  3000               	movlw	0
  1879  0073  00BF               	movwf	___flmul@a+1
  1880  0074  3000               	movlw	0
  1881  0075  00BE               	movwf	___flmul@a
  1882  0076                     i1l1726:
  1883  0076  084C               	movf	___flmul@aexp,w
  1884  0077  1903               	btfsc	3,2
  1885  0078  287A               	goto	u237_21
  1886  0079  287B               	goto	u237_20
  1887  007A                     u237_21:
  1888  007A  2880               	goto	i1l1730
  1889  007B                     u237_20:
  1890  007B                     i1l1728:
  1891  007B  084D               	movf	___flmul@bexp,w
  1892  007C  1D03               	btfss	3,2
  1893  007D  287F               	goto	u238_21
  1894  007E  2880               	goto	u238_20
  1895  007F                     u238_21:
  1896  007F  2889               	goto	i1l1734
  1897  0080                     u238_20:
  1898  0080                     i1l1730:
  1899  0080  3000               	movlw	0
  1900  0081  00BD               	movwf	?___flmul+3
  1901  0082  3000               	movlw	0
  1902  0083  00BC               	movwf	?___flmul+2
  1903  0084  3000               	movlw	0
  1904  0085  00BB               	movwf	?___flmul+1
  1905  0086  3000               	movlw	0
  1906  0087  00BA               	movwf	?___flmul
  1907  0088  2B7C               	goto	i1l557
  1908  0089                     i1l1734:
  1909  0089  083A               	movf	___flmul@b,w
  1910  008A  00C2               	movwf	??___flmul
  1911  008B  0842               	movf	??___flmul,w
  1912  008C  00F0               	movwf	__Umul8_16@multiplicand
  1913  008D  0840               	movf	___flmul@a+2,w
  1914  008E  120A  158A  251A  120A  118A  	fcall	__Umul8_16
  1915  0093  0871               	movf	?__Umul8_16+1,w
  1916  0094  1283               	bcf	3,5	;RP0=0, select bank0
  1917  0095  1303               	bcf	3,6	;RP1=0, select bank0
  1918  0096  00D3               	movwf	___flmul@temp+1
  1919  0097  0870               	movf	?__Umul8_16,w
  1920  0098  00D2               	movwf	___flmul@temp
  1921  0099                     i1l1736:
  1922  0099  0852               	movf	___flmul@temp,w
  1923  009A  00C2               	movwf	??___flmul
  1924  009B  01C3               	clrf	??___flmul+1
  1925  009C  01C4               	clrf	??___flmul+2
  1926  009D  01C5               	clrf	??___flmul+3
  1927  009E  0845               	movf	??___flmul+3,w
  1928  009F  00CB               	movwf	___flmul@grs+3
  1929  00A0  0844               	movf	??___flmul+2,w
  1930  00A1  00CA               	movwf	___flmul@grs+2
  1931  00A2  0843               	movf	??___flmul+1,w
  1932  00A3  00C9               	movwf	___flmul@grs+1
  1933  00A4  0842               	movf	??___flmul,w
  1934  00A5  00C8               	movwf	___flmul@grs
  1935  00A6                     i1l1738:
  1936  00A6  0853               	movf	___flmul@temp+1,w
  1937  00A7  00C2               	movwf	??___flmul
  1938  00A8  01C3               	clrf	??___flmul+1
  1939  00A9  01C4               	clrf	??___flmul+2
  1940  00AA  01C5               	clrf	??___flmul+3
  1941  00AB  0845               	movf	??___flmul+3,w
  1942  00AC  00D1               	movwf	___flmul@prod+3
  1943  00AD  0844               	movf	??___flmul+2,w
  1944  00AE  00D0               	movwf	___flmul@prod+2
  1945  00AF  0843               	movf	??___flmul+1,w
  1946  00B0  00CF               	movwf	___flmul@prod+1
  1947  00B1  0842               	movf	??___flmul,w
  1948  00B2  00CE               	movwf	___flmul@prod
  1949  00B3  083B               	movf	___flmul@b+1,w
  1950  00B4  00C2               	movwf	??___flmul
  1951  00B5  0842               	movf	??___flmul,w
  1952  00B6  00F0               	movwf	__Umul8_16@multiplicand
  1953  00B7  083F               	movf	___flmul@a+1,w
  1954  00B8  120A  158A  251A  120A  118A  	fcall	__Umul8_16
  1955  00BD  0871               	movf	?__Umul8_16+1,w
  1956  00BE  1283               	bcf	3,5	;RP0=0, select bank0
  1957  00BF  1303               	bcf	3,6	;RP1=0, select bank0
  1958  00C0  00D3               	movwf	___flmul@temp+1
  1959  00C1  0870               	movf	?__Umul8_16,w
  1960  00C2  00D2               	movwf	___flmul@temp
  1961  00C3                     i1l1740:
  1962  00C3  0852               	movf	___flmul@temp,w
  1963  00C4  00C2               	movwf	??___flmul
  1964  00C5  01C3               	clrf	??___flmul+1
  1965  00C6  01C4               	clrf	??___flmul+2
  1966  00C7  01C5               	clrf	??___flmul+3
  1967  00C8  0842               	movf	??___flmul,w
  1968  00C9  07C8               	addwf	___flmul@grs,f
  1969  00CA  0843               	movf	??___flmul+1,w
  1970  00CB  1103               	clrz
  1971  00CC  1803               	skipnc
  1972  00CD  3E01               	addlw	1
  1973  00CE  1903               	skipnz
  1974  00CF  28D1               	goto	u239_21
  1975  00D0  07C9               	addwf	___flmul@grs+1,f
  1976  00D1                     u239_21:
  1977  00D1  0844               	movf	??___flmul+2,w
  1978  00D2  1103               	clrz
  1979  00D3  1803               	skipnc
  1980  00D4  3E01               	addlw	1
  1981  00D5  1903               	skipnz
  1982  00D6  28D8               	goto	u239_22
  1983  00D7  07CA               	addwf	___flmul@grs+2,f
  1984  00D8                     u239_22:
  1985  00D8  0845               	movf	??___flmul+3,w
  1986  00D9  1103               	clrz
  1987  00DA  1803               	skipnc
  1988  00DB  3E01               	addlw	1
  1989  00DC  1903               	skipnz
  1990  00DD  28DF               	goto	u239_23
  1991  00DE  07CB               	addwf	___flmul@grs+3,f
  1992  00DF                     u239_23:
  1993  00DF                     i1l1742:
  1994  00DF  0853               	movf	___flmul@temp+1,w
  1995  00E0  00C2               	movwf	??___flmul
  1996  00E1  01C3               	clrf	??___flmul+1
  1997  00E2  01C4               	clrf	??___flmul+2
  1998  00E3  01C5               	clrf	??___flmul+3
  1999  00E4  0842               	movf	??___flmul,w
  2000  00E5  07CE               	addwf	___flmul@prod,f
  2001  00E6  0843               	movf	??___flmul+1,w
  2002  00E7  1103               	clrz
  2003  00E8  1803               	skipnc
  2004  00E9  3E01               	addlw	1
  2005  00EA  1903               	skipnz
  2006  00EB  28ED               	goto	u240_21
  2007  00EC  07CF               	addwf	___flmul@prod+1,f
  2008  00ED                     u240_21:
  2009  00ED  0844               	movf	??___flmul+2,w
  2010  00EE  1103               	clrz
  2011  00EF  1803               	skipnc
  2012  00F0  3E01               	addlw	1
  2013  00F1  1903               	skipnz
  2014  00F2  28F4               	goto	u240_22
  2015  00F3  07D0               	addwf	___flmul@prod+2,f
  2016  00F4                     u240_22:
  2017  00F4  0845               	movf	??___flmul+3,w
  2018  00F5  1103               	clrz
  2019  00F6  1803               	skipnc
  2020  00F7  3E01               	addlw	1
  2021  00F8  1903               	skipnz
  2022  00F9  28FB               	goto	u240_23
  2023  00FA  07D1               	addwf	___flmul@prod+3,f
  2024  00FB                     u240_23:
  2025  00FB  083C               	movf	___flmul@b+2,w
  2026  00FC  00C2               	movwf	??___flmul
  2027  00FD  0842               	movf	??___flmul,w
  2028  00FE  00F0               	movwf	__Umul8_16@multiplicand
  2029  00FF  083E               	movf	___flmul@a,w
  2030  0100  120A  158A  251A  120A  118A  	fcall	__Umul8_16
  2031  0105  0871               	movf	?__Umul8_16+1,w
  2032  0106  1283               	bcf	3,5	;RP0=0, select bank0
  2033  0107  1303               	bcf	3,6	;RP1=0, select bank0
  2034  0108  00D3               	movwf	___flmul@temp+1
  2035  0109  0870               	movf	?__Umul8_16,w
  2036  010A  00D2               	movwf	___flmul@temp
  2037  010B                     i1l1744:
  2038  010B  0852               	movf	___flmul@temp,w
  2039  010C  00C2               	movwf	??___flmul
  2040  010D  01C3               	clrf	??___flmul+1
  2041  010E  01C4               	clrf	??___flmul+2
  2042  010F  01C5               	clrf	??___flmul+3
  2043  0110  0842               	movf	??___flmul,w
  2044  0111  07C8               	addwf	___flmul@grs,f
  2045  0112  0843               	movf	??___flmul+1,w
  2046  0113  1103               	clrz
  2047  0114  1803               	skipnc
  2048  0115  3E01               	addlw	1
  2049  0116  1903               	skipnz
  2050  0117  2919               	goto	u241_21
  2051  0118  07C9               	addwf	___flmul@grs+1,f
  2052  0119                     u241_21:
  2053  0119  0844               	movf	??___flmul+2,w
  2054  011A  1103               	clrz
  2055  011B  1803               	skipnc
  2056  011C  3E01               	addlw	1
  2057  011D  1903               	skipnz
  2058  011E  2920               	goto	u241_22
  2059  011F  07CA               	addwf	___flmul@grs+2,f
  2060  0120                     u241_22:
  2061  0120  0845               	movf	??___flmul+3,w
  2062  0121  1103               	clrz
  2063  0122  1803               	skipnc
  2064  0123  3E01               	addlw	1
  2065  0124  1903               	skipnz
  2066  0125  2927               	goto	u241_23
  2067  0126  07CB               	addwf	___flmul@grs+3,f
  2068  0127                     u241_23:
  2069  0127                     i1l1746:
  2070  0127  0853               	movf	___flmul@temp+1,w
  2071  0128  00C2               	movwf	??___flmul
  2072  0129  01C3               	clrf	??___flmul+1
  2073  012A  01C4               	clrf	??___flmul+2
  2074  012B  01C5               	clrf	??___flmul+3
  2075  012C  0842               	movf	??___flmul,w
  2076  012D  07CE               	addwf	___flmul@prod,f
  2077  012E  0843               	movf	??___flmul+1,w
  2078  012F  1103               	clrz
  2079  0130  1803               	skipnc
  2080  0131  3E01               	addlw	1
  2081  0132  1903               	skipnz
  2082  0133  2935               	goto	u242_21
  2083  0134  07CF               	addwf	___flmul@prod+1,f
  2084  0135                     u242_21:
  2085  0135  0844               	movf	??___flmul+2,w
  2086  0136  1103               	clrz
  2087  0137  1803               	skipnc
  2088  0138  3E01               	addlw	1
  2089  0139  1903               	skipnz
  2090  013A  293C               	goto	u242_22
  2091  013B  07D0               	addwf	___flmul@prod+2,f
  2092  013C                     u242_22:
  2093  013C  0845               	movf	??___flmul+3,w
  2094  013D  1103               	clrz
  2095  013E  1803               	skipnc
  2096  013F  3E01               	addlw	1
  2097  0140  1903               	skipnz
  2098  0141  2943               	goto	u242_23
  2099  0142  07D1               	addwf	___flmul@prod+3,f
  2100  0143                     u242_23:
  2101  0143                     i1l1748:
  2102  0143  3008               	movlw	8
  2103  0144  00C2               	movwf	??___flmul
  2104  0145                     u243_25:
  2105  0145  1003               	clrc
  2106  0146  0DC8               	rlf	___flmul@grs,f
  2107  0147  0DC9               	rlf	___flmul@grs+1,f
  2108  0148  0DCA               	rlf	___flmul@grs+2,f
  2109  0149  0DCB               	rlf	___flmul@grs+3,f
  2110  014A  0BC2               	decfsz	??___flmul,f
  2111  014B  2945               	goto	u243_25
  2112  014C                     i1l1750:
  2113  014C  083B               	movf	___flmul@b+1,w
  2114  014D  00C2               	movwf	??___flmul
  2115  014E  0842               	movf	??___flmul,w
  2116  014F  00F0               	movwf	__Umul8_16@multiplicand
  2117  0150  083E               	movf	___flmul@a,w
  2118  0151  120A  158A  251A  120A  118A  	fcall	__Umul8_16
  2119  0156  0871               	movf	?__Umul8_16+1,w
  2120  0157  1283               	bcf	3,5	;RP0=0, select bank0
  2121  0158  1303               	bcf	3,6	;RP1=0, select bank0
  2122  0159  00D3               	movwf	___flmul@temp+1
  2123  015A  0870               	movf	?__Umul8_16,w
  2124  015B  00D2               	movwf	___flmul@temp
  2125  015C                     i1l1752:
  2126  015C  0852               	movf	___flmul@temp,w
  2127  015D  00C2               	movwf	??___flmul
  2128  015E  0853               	movf	___flmul@temp+1,w
  2129  015F  00C3               	movwf	??___flmul+1
  2130  0160  01C4               	clrf	??___flmul+2
  2131  0161  01C5               	clrf	??___flmul+3
  2132  0162  0842               	movf	??___flmul,w
  2133  0163  07C8               	addwf	___flmul@grs,f
  2134  0164  0843               	movf	??___flmul+1,w
  2135  0165  1103               	clrz
  2136  0166  1803               	skipnc
  2137  0167  3E01               	addlw	1
  2138  0168  1903               	skipnz
  2139  0169  296B               	goto	u244_21
  2140  016A  07C9               	addwf	___flmul@grs+1,f
  2141  016B                     u244_21:
  2142  016B  0844               	movf	??___flmul+2,w
  2143  016C  1103               	clrz
  2144  016D  1803               	skipnc
  2145  016E  3E01               	addlw	1
  2146  016F  1903               	skipnz
  2147  0170  2972               	goto	u244_22
  2148  0171  07CA               	addwf	___flmul@grs+2,f
  2149  0172                     u244_22:
  2150  0172  0845               	movf	??___flmul+3,w
  2151  0173  1103               	clrz
  2152  0174  1803               	skipnc
  2153  0175  3E01               	addlw	1
  2154  0176  1903               	skipnz
  2155  0177  2979               	goto	u244_23
  2156  0178  07CB               	addwf	___flmul@grs+3,f
  2157  0179                     u244_23:
  2158  0179                     i1l1754:
  2159  0179  083A               	movf	___flmul@b,w
  2160  017A  00C2               	movwf	??___flmul
  2161  017B  0842               	movf	??___flmul,w
  2162  017C  00F0               	movwf	__Umul8_16@multiplicand
  2163  017D  083F               	movf	___flmul@a+1,w
  2164  017E  120A  158A  251A  120A  118A  	fcall	__Umul8_16
  2165  0183  0871               	movf	?__Umul8_16+1,w
  2166  0184  1283               	bcf	3,5	;RP0=0, select bank0
  2167  0185  1303               	bcf	3,6	;RP1=0, select bank0
  2168  0186  00D3               	movwf	___flmul@temp+1
  2169  0187  0870               	movf	?__Umul8_16,w
  2170  0188  00D2               	movwf	___flmul@temp
  2171  0189                     i1l1756:
  2172  0189  0852               	movf	___flmul@temp,w
  2173  018A  00C2               	movwf	??___flmul
  2174  018B  0853               	movf	___flmul@temp+1,w
  2175  018C  00C3               	movwf	??___flmul+1
  2176  018D  01C4               	clrf	??___flmul+2
  2177  018E  01C5               	clrf	??___flmul+3
  2178  018F  0842               	movf	??___flmul,w
  2179  0190  07C8               	addwf	___flmul@grs,f
  2180  0191  0843               	movf	??___flmul+1,w
  2181  0192  1103               	clrz
  2182  0193  1803               	skipnc
  2183  0194  3E01               	addlw	1
  2184  0195  1903               	skipnz
  2185  0196  2998               	goto	u245_21
  2186  0197  07C9               	addwf	___flmul@grs+1,f
  2187  0198                     u245_21:
  2188  0198  0844               	movf	??___flmul+2,w
  2189  0199  1103               	clrz
  2190  019A  1803               	skipnc
  2191  019B  3E01               	addlw	1
  2192  019C  1903               	skipnz
  2193  019D  299F               	goto	u245_22
  2194  019E  07CA               	addwf	___flmul@grs+2,f
  2195  019F                     u245_22:
  2196  019F  0845               	movf	??___flmul+3,w
  2197  01A0  1103               	clrz
  2198  01A1  1803               	skipnc
  2199  01A2  3E01               	addlw	1
  2200  01A3  1903               	skipnz
  2201  01A4  29A6               	goto	u245_23
  2202  01A5  07CB               	addwf	___flmul@grs+3,f
  2203  01A6                     u245_23:
  2204  01A6                     i1l1758:
  2205  01A6  3008               	movlw	8
  2206  01A7  00C2               	movwf	??___flmul
  2207  01A8                     u246_25:
  2208  01A8  1003               	clrc
  2209  01A9  0DC8               	rlf	___flmul@grs,f
  2210  01AA  0DC9               	rlf	___flmul@grs+1,f
  2211  01AB  0DCA               	rlf	___flmul@grs+2,f
  2212  01AC  0DCB               	rlf	___flmul@grs+3,f
  2213  01AD  0BC2               	decfsz	??___flmul,f
  2214  01AE  29A8               	goto	u246_25
  2215  01AF  083A               	movf	___flmul@b,w
  2216  01B0  00C2               	movwf	??___flmul
  2217  01B1  0842               	movf	??___flmul,w
  2218  01B2  00F0               	movwf	__Umul8_16@multiplicand
  2219  01B3  083E               	movf	___flmul@a,w
  2220  01B4  120A  158A  251A  120A  118A  	fcall	__Umul8_16
  2221  01B9  0871               	movf	?__Umul8_16+1,w
  2222  01BA  1283               	bcf	3,5	;RP0=0, select bank0
  2223  01BB  1303               	bcf	3,6	;RP1=0, select bank0
  2224  01BC  00D3               	movwf	___flmul@temp+1
  2225  01BD  0870               	movf	?__Umul8_16,w
  2226  01BE  00D2               	movwf	___flmul@temp
  2227  01BF                     i1l1760:
  2228  01BF  0852               	movf	___flmul@temp,w
  2229  01C0  00C2               	movwf	??___flmul
  2230  01C1  0853               	movf	___flmul@temp+1,w
  2231  01C2  00C3               	movwf	??___flmul+1
  2232  01C3  01C4               	clrf	??___flmul+2
  2233  01C4  01C5               	clrf	??___flmul+3
  2234  01C5  0842               	movf	??___flmul,w
  2235  01C6  07C8               	addwf	___flmul@grs,f
  2236  01C7  0843               	movf	??___flmul+1,w
  2237  01C8  1103               	clrz
  2238  01C9  1803               	skipnc
  2239  01CA  3E01               	addlw	1
  2240  01CB  1903               	skipnz
  2241  01CC  29CE               	goto	u247_21
  2242  01CD  07C9               	addwf	___flmul@grs+1,f
  2243  01CE                     u247_21:
  2244  01CE  0844               	movf	??___flmul+2,w
  2245  01CF  1103               	clrz
  2246  01D0  1803               	skipnc
  2247  01D1  3E01               	addlw	1
  2248  01D2  1903               	skipnz
  2249  01D3  29D5               	goto	u247_22
  2250  01D4  07CA               	addwf	___flmul@grs+2,f
  2251  01D5                     u247_22:
  2252  01D5  0845               	movf	??___flmul+3,w
  2253  01D6  1103               	clrz
  2254  01D7  1803               	skipnc
  2255  01D8  3E01               	addlw	1
  2256  01D9  1903               	skipnz
  2257  01DA  29DC               	goto	u247_23
  2258  01DB  07CB               	addwf	___flmul@grs+3,f
  2259  01DC                     u247_23:
  2260  01DC                     i1l1762:
  2261  01DC  083B               	movf	___flmul@b+1,w
  2262  01DD  00C2               	movwf	??___flmul
  2263  01DE  0842               	movf	??___flmul,w
  2264  01DF  00F0               	movwf	__Umul8_16@multiplicand
  2265  01E0  0840               	movf	___flmul@a+2,w
  2266  01E1  120A  158A  251A  120A  118A  	fcall	__Umul8_16
  2267  01E6  0871               	movf	?__Umul8_16+1,w
  2268  01E7  1283               	bcf	3,5	;RP0=0, select bank0
  2269  01E8  1303               	bcf	3,6	;RP1=0, select bank0
  2270  01E9  00D3               	movwf	___flmul@temp+1
  2271  01EA  0870               	movf	?__Umul8_16,w
  2272  01EB  00D2               	movwf	___flmul@temp
  2273  01EC  0852               	movf	___flmul@temp,w
  2274  01ED  00C2               	movwf	??___flmul
  2275  01EE  0853               	movf	___flmul@temp+1,w
  2276  01EF  00C3               	movwf	??___flmul+1
  2277  01F0  01C4               	clrf	??___flmul+2
  2278  01F1  01C5               	clrf	??___flmul+3
  2279  01F2  0842               	movf	??___flmul,w
  2280  01F3  07CE               	addwf	___flmul@prod,f
  2281  01F4  0843               	movf	??___flmul+1,w
  2282  01F5  1103               	clrz
  2283  01F6  1803               	skipnc
  2284  01F7  3E01               	addlw	1
  2285  01F8  1903               	skipnz
  2286  01F9  29FB               	goto	u248_21
  2287  01FA  07CF               	addwf	___flmul@prod+1,f
  2288  01FB                     u248_21:
  2289  01FB  0844               	movf	??___flmul+2,w
  2290  01FC  1103               	clrz
  2291  01FD  1803               	skipnc
  2292  01FE  3E01               	addlw	1
  2293  01FF  1903               	skipnz
  2294  0200  2A02               	goto	u248_22
  2295  0201  07D0               	addwf	___flmul@prod+2,f
  2296  0202                     u248_22:
  2297  0202  0845               	movf	??___flmul+3,w
  2298  0203  1103               	clrz
  2299  0204  1803               	skipnc
  2300  0205  3E01               	addlw	1
  2301  0206  1903               	skipnz
  2302  0207  2A09               	goto	u248_23
  2303  0208  07D1               	addwf	___flmul@prod+3,f
  2304  0209                     u248_23:
  2305  0209                     i1l1764:
  2306  0209  083C               	movf	___flmul@b+2,w
  2307  020A  00C2               	movwf	??___flmul
  2308  020B  0842               	movf	??___flmul,w
  2309  020C  00F0               	movwf	__Umul8_16@multiplicand
  2310  020D  083F               	movf	___flmul@a+1,w
  2311  020E  120A  158A  251A  120A  118A  	fcall	__Umul8_16
  2312  0213  0871               	movf	?__Umul8_16+1,w
  2313  0214  1283               	bcf	3,5	;RP0=0, select bank0
  2314  0215  1303               	bcf	3,6	;RP1=0, select bank0
  2315  0216  00D3               	movwf	___flmul@temp+1
  2316  0217  0870               	movf	?__Umul8_16,w
  2317  0218  00D2               	movwf	___flmul@temp
  2318  0219                     i1l1766:
  2319  0219  0852               	movf	___flmul@temp,w
  2320  021A  00C2               	movwf	??___flmul
  2321  021B  0853               	movf	___flmul@temp+1,w
  2322  021C  00C3               	movwf	??___flmul+1
  2323  021D  01C4               	clrf	??___flmul+2
  2324  021E  01C5               	clrf	??___flmul+3
  2325  021F  0842               	movf	??___flmul,w
  2326  0220  07CE               	addwf	___flmul@prod,f
  2327  0221  0843               	movf	??___flmul+1,w
  2328  0222  1103               	clrz
  2329  0223  1803               	skipnc
  2330  0224  3E01               	addlw	1
  2331  0225  1903               	skipnz
  2332  0226  2A28               	goto	u249_21
  2333  0227  07CF               	addwf	___flmul@prod+1,f
  2334  0228                     u249_21:
  2335  0228  0844               	movf	??___flmul+2,w
  2336  0229  1103               	clrz
  2337  022A  1803               	skipnc
  2338  022B  3E01               	addlw	1
  2339  022C  1903               	skipnz
  2340  022D  2A2F               	goto	u249_22
  2341  022E  07D0               	addwf	___flmul@prod+2,f
  2342  022F                     u249_22:
  2343  022F  0845               	movf	??___flmul+3,w
  2344  0230  1103               	clrz
  2345  0231  1803               	skipnc
  2346  0232  3E01               	addlw	1
  2347  0233  1903               	skipnz
  2348  0234  2A36               	goto	u249_23
  2349  0235  07D1               	addwf	___flmul@prod+3,f
  2350  0236                     u249_23:
  2351  0236  083C               	movf	___flmul@b+2,w
  2352  0237  00C2               	movwf	??___flmul
  2353  0238  0842               	movf	??___flmul,w
  2354  0239  00F0               	movwf	__Umul8_16@multiplicand
  2355  023A  0840               	movf	___flmul@a+2,w
  2356  023B  120A  158A  251A  120A  118A  	fcall	__Umul8_16
  2357  0240  0871               	movf	?__Umul8_16+1,w
  2358  0241  1283               	bcf	3,5	;RP0=0, select bank0
  2359  0242  1303               	bcf	3,6	;RP1=0, select bank0
  2360  0243  00D3               	movwf	___flmul@temp+1
  2361  0244  0870               	movf	?__Umul8_16,w
  2362  0245  00D2               	movwf	___flmul@temp
  2363  0246                     i1l1768:
  2364  0246  0852               	movf	___flmul@temp,w
  2365  0247  00C2               	movwf	??___flmul
  2366  0248  0853               	movf	___flmul@temp+1,w
  2367  0249  00C3               	movwf	??___flmul+1
  2368  024A  01C4               	clrf	??___flmul+2
  2369  024B  01C5               	clrf	??___flmul+3
  2370  024C  3008               	movlw	8
  2371  024D                     u250_25:
  2372  024D  1003               	clrc
  2373  024E  0DC2               	rlf	??___flmul,f
  2374  024F  0DC3               	rlf	??___flmul+1,f
  2375  0250  0DC4               	rlf	??___flmul+2,f
  2376  0251  0DC5               	rlf	??___flmul+3,f
  2377  0252                     u250_20:
  2378  0252  3EFF               	addlw	-1
  2379  0253  1D03               	skipz
  2380  0254  2A4D               	goto	u250_25
  2381  0255  0842               	movf	??___flmul,w
  2382  0256  07CE               	addwf	___flmul@prod,f
  2383  0257  0843               	movf	??___flmul+1,w
  2384  0258  1103               	clrz
  2385  0259  1803               	skipnc
  2386  025A  3E01               	addlw	1
  2387  025B  1903               	skipnz
  2388  025C  2A5E               	goto	u251_21
  2389  025D  07CF               	addwf	___flmul@prod+1,f
  2390  025E                     u251_21:
  2391  025E  0844               	movf	??___flmul+2,w
  2392  025F  1103               	clrz
  2393  0260  1803               	skipnc
  2394  0261  3E01               	addlw	1
  2395  0262  1903               	skipnz
  2396  0263  2A65               	goto	u251_22
  2397  0264  07D0               	addwf	___flmul@prod+2,f
  2398  0265                     u251_22:
  2399  0265  0845               	movf	??___flmul+3,w
  2400  0266  1103               	clrz
  2401  0267  1803               	skipnc
  2402  0268  3E01               	addlw	1
  2403  0269  1903               	skipnz
  2404  026A  2A6C               	goto	u251_23
  2405  026B  07D1               	addwf	___flmul@prod+3,f
  2406  026C                     u251_23:
  2407  026C                     i1l1770:
  2408  026C  0848               	movf	___flmul@grs,w
  2409  026D  00C2               	movwf	??___flmul
  2410  026E  0849               	movf	___flmul@grs+1,w
  2411  026F  00C3               	movwf	??___flmul+1
  2412  0270  084A               	movf	___flmul@grs+2,w
  2413  0271  00C4               	movwf	??___flmul+2
  2414  0272  084B               	movf	___flmul@grs+3,w
  2415  0273  00C5               	movwf	??___flmul+3
  2416  0274  3018               	movlw	24
  2417  0275                     u252_25:
  2418  0275  1003               	clrc
  2419  0276  0CC5               	rrf	??___flmul+3,f
  2420  0277  0CC4               	rrf	??___flmul+2,f
  2421  0278  0CC3               	rrf	??___flmul+1,f
  2422  0279  0CC2               	rrf	??___flmul,f
  2423  027A                     u252_20:
  2424  027A  3EFF               	addlw	-1
  2425  027B  1D03               	skipz
  2426  027C  2A75               	goto	u252_25
  2427  027D  0842               	movf	??___flmul,w
  2428  027E  07CE               	addwf	___flmul@prod,f
  2429  027F  0843               	movf	??___flmul+1,w
  2430  0280  1103               	clrz
  2431  0281  1803               	skipnc
  2432  0282  3E01               	addlw	1
  2433  0283  1903               	skipnz
  2434  0284  2A86               	goto	u253_21
  2435  0285  07CF               	addwf	___flmul@prod+1,f
  2436  0286                     u253_21:
  2437  0286  0844               	movf	??___flmul+2,w
  2438  0287  1103               	clrz
  2439  0288  1803               	skipnc
  2440  0289  3E01               	addlw	1
  2441  028A  1903               	skipnz
  2442  028B  2A8D               	goto	u253_22
  2443  028C  07D0               	addwf	___flmul@prod+2,f
  2444  028D                     u253_22:
  2445  028D  0845               	movf	??___flmul+3,w
  2446  028E  1103               	clrz
  2447  028F  1803               	skipnc
  2448  0290  3E01               	addlw	1
  2449  0291  1903               	skipnz
  2450  0292  2A94               	goto	u253_23
  2451  0293  07D1               	addwf	___flmul@prod+3,f
  2452  0294                     u253_23:
  2453  0294                     i1l1772:
  2454  0294  3008               	movlw	8
  2455  0295  00C2               	movwf	??___flmul
  2456  0296                     u254_25:
  2457  0296  1003               	clrc
  2458  0297  0DC8               	rlf	___flmul@grs,f
  2459  0298  0DC9               	rlf	___flmul@grs+1,f
  2460  0299  0DCA               	rlf	___flmul@grs+2,f
  2461  029A  0DCB               	rlf	___flmul@grs+3,f
  2462  029B  0BC2               	decfsz	??___flmul,f
  2463  029C  2A96               	goto	u254_25
  2464  029D                     i1l1774:
  2465  029D  084D               	movf	___flmul@bexp,w
  2466  029E  074C               	addwf	___flmul@aexp,w
  2467  029F  00C2               	movwf	??___flmul
  2468  02A0  01C3               	clrf	??___flmul+1
  2469  02A1  0DC3               	rlf	??___flmul+1,f
  2470  02A2  0842               	movf	??___flmul,w
  2471  02A3  3E82               	addlw	130
  2472  02A4  00D2               	movwf	___flmul@temp
  2473  02A5  0843               	movf	??___flmul+1,w
  2474  02A6  1803               	skipnc
  2475  02A7  3E01               	addlw	1
  2476  02A8  3EFF               	addlw	255
  2477  02A9  00D3               	movwf	___flmul@temp+1
  2478  02AA  2AC8               	goto	i1l1786
  2479  02AB                     i1l1776:
  2480  02AB  3001               	movlw	1
  2481  02AC  00C2               	movwf	??___flmul
  2482  02AD                     u255_25:
  2483  02AD  1003               	clrc
  2484  02AE  0DCE               	rlf	___flmul@prod,f
  2485  02AF  0DCF               	rlf	___flmul@prod+1,f
  2486  02B0  0DD0               	rlf	___flmul@prod+2,f
  2487  02B1  0DD1               	rlf	___flmul@prod+3,f
  2488  02B2  0BC2               	decfsz	??___flmul,f
  2489  02B3  2AAD               	goto	u255_25
  2490  02B4                     i1l1778:
  2491  02B4  1FCB               	btfss	___flmul@grs+3,7
  2492  02B5  2AB7               	goto	u256_21
  2493  02B6  2AB8               	goto	u256_20
  2494  02B7                     u256_21:
  2495  02B7  2AB9               	goto	i1l1782
  2496  02B8                     u256_20:
  2497  02B8                     i1l1780:
  2498  02B8  144E               	bsf	___flmul@prod,0
  2499  02B9                     i1l1782:
  2500  02B9  3001               	movlw	1
  2501  02BA  00C2               	movwf	??___flmul
  2502  02BB                     u257_25:
  2503  02BB  1003               	clrc
  2504  02BC  0DC8               	rlf	___flmul@grs,f
  2505  02BD  0DC9               	rlf	___flmul@grs+1,f
  2506  02BE  0DCA               	rlf	___flmul@grs+2,f
  2507  02BF  0DCB               	rlf	___flmul@grs+3,f
  2508  02C0  0BC2               	decfsz	??___flmul,f
  2509  02C1  2ABB               	goto	u257_25
  2510  02C2                     i1l1784:
  2511  02C2  30FF               	movlw	255
  2512  02C3  07D2               	addwf	___flmul@temp,f
  2513  02C4  1803               	skipnc
  2514  02C5  0AD3               	incf	___flmul@temp+1,f
  2515  02C6  30FF               	movlw	255
  2516  02C7  07D3               	addwf	___flmul@temp+1,f
  2517  02C8                     i1l1786:
  2518  02C8  1FD0               	btfss	___flmul@prod+2,7
  2519  02C9  2ACB               	goto	u258_21
  2520  02CA  2ACC               	goto	u258_20
  2521  02CB                     u258_21:
  2522  02CB  2AAB               	goto	i1l1776
  2523  02CC                     u258_20:
  2524  02CC                     i1l1788:
  2525  02CC  01CC               	clrf	___flmul@aexp
  2526  02CD                     i1l1790:
  2527  02CD  1FCB               	btfss	___flmul@grs+3,7
  2528  02CE  2AD0               	goto	u259_21
  2529  02CF  2AD1               	goto	u259_20
  2530  02D0                     u259_21:
  2531  02D0  2AED               	goto	i1l1798
  2532  02D1                     u259_20:
  2533  02D1                     i1l1792:
  2534  02D1  30FF               	movlw	255
  2535  02D2  0548               	andwf	___flmul@grs,w
  2536  02D3  00C2               	movwf	??___flmul
  2537  02D4  30FF               	movlw	255
  2538  02D5  0549               	andwf	___flmul@grs+1,w
  2539  02D6  00C3               	movwf	??___flmul+1
  2540  02D7  30FF               	movlw	255
  2541  02D8  054A               	andwf	___flmul@grs+2,w
  2542  02D9  00C4               	movwf	??___flmul+2
  2543  02DA  307F               	movlw	127
  2544  02DB  054B               	andwf	___flmul@grs+3,w
  2545  02DC  00C5               	movwf	??___flmul+3
  2546  02DD  0845               	movf	??___flmul+3,w
  2547  02DE  0444               	iorwf	??___flmul+2,w
  2548  02DF  0443               	iorwf	??___flmul+1,w
  2549  02E0  0442               	iorwf	??___flmul,w
  2550  02E1  1903               	skipnz
  2551  02E2  2AE4               	goto	u260_21
  2552  02E3  2AE5               	goto	u260_20
  2553  02E4                     u260_21:
  2554  02E4  2AE8               	goto	i1l563
  2555  02E5                     u260_20:
  2556  02E5                     i1l1794:
  2557  02E5  01CC               	clrf	___flmul@aexp
  2558  02E6  0ACC               	incf	___flmul@aexp,f
  2559  02E7  2AED               	goto	i1l1798
  2560  02E8                     i1l563:
  2561  02E8  1C4E               	btfss	___flmul@prod,0
  2562  02E9  2AEB               	goto	u261_21
  2563  02EA  2AEC               	goto	u261_20
  2564  02EB                     u261_21:
  2565  02EB  2AED               	goto	i1l1798
  2566  02EC                     u261_20:
  2567  02EC  2AE5               	goto	i1l1794
  2568  02ED                     i1l1798:
  2569  02ED  084C               	movf	___flmul@aexp,w
  2570  02EE  1903               	btfsc	3,2
  2571  02EF  2AF1               	goto	u262_21
  2572  02F0  2AF2               	goto	u262_20
  2573  02F1                     u262_21:
  2574  02F1  2B23               	goto	i1l1808
  2575  02F2                     u262_20:
  2576  02F2                     i1l1800:
  2577  02F2  3001               	movlw	1
  2578  02F3  07CE               	addwf	___flmul@prod,f
  2579  02F4  3000               	movlw	0
  2580  02F5  1803               	skipnc
  2581  02F6  3001               	movlw	1
  2582  02F7  07CF               	addwf	___flmul@prod+1,f
  2583  02F8  3000               	movlw	0
  2584  02F9  1803               	skipnc
  2585  02FA  3001               	movlw	1
  2586  02FB  07D0               	addwf	___flmul@prod+2,f
  2587  02FC  3000               	movlw	0
  2588  02FD  1803               	skipnc
  2589  02FE  3001               	movlw	1
  2590  02FF  07D1               	addwf	___flmul@prod+3,f
  2591  0300                     i1l1802:
  2592  0300  1C51               	btfss	___flmul@prod+3,0
  2593  0301  2B03               	goto	u263_21
  2594  0302  2B04               	goto	u263_20
  2595  0303                     u263_21:
  2596  0303  2B23               	goto	i1l1808
  2597  0304                     u263_20:
  2598  0304                     i1l1804:
  2599  0304  084E               	movf	___flmul@prod,w
  2600  0305  00C2               	movwf	??___flmul
  2601  0306  084F               	movf	___flmul@prod+1,w
  2602  0307  00C3               	movwf	??___flmul+1
  2603  0308  0850               	movf	___flmul@prod+2,w
  2604  0309  00C4               	movwf	??___flmul+2
  2605  030A  0851               	movf	___flmul@prod+3,w
  2606  030B  00C5               	movwf	??___flmul+3
  2607  030C  3001               	movlw	1
  2608  030D  00C6               	movwf	??___flmul+4
  2609  030E                     u264_25:
  2610  030E  0D45               	rlf	??___flmul+3,w
  2611  030F  0CC5               	rrf	??___flmul+3,f
  2612  0310  0CC4               	rrf	??___flmul+2,f
  2613  0311  0CC3               	rrf	??___flmul+1,f
  2614  0312  0CC2               	rrf	??___flmul,f
  2615  0313                     u264_20:
  2616  0313  0BC6               	decfsz	??___flmul+4,f
  2617  0314  2B0E               	goto	u264_25
  2618  0315  0845               	movf	??___flmul+3,w
  2619  0316  00D1               	movwf	___flmul@prod+3
  2620  0317  0844               	movf	??___flmul+2,w
  2621  0318  00D0               	movwf	___flmul@prod+2
  2622  0319  0843               	movf	??___flmul+1,w
  2623  031A  00CF               	movwf	___flmul@prod+1
  2624  031B  0842               	movf	??___flmul,w
  2625  031C  00CE               	movwf	___flmul@prod
  2626  031D                     i1l1806:
  2627  031D  3001               	movlw	1
  2628  031E  07D2               	addwf	___flmul@temp,f
  2629  031F  1803               	skipnc
  2630  0320  0AD3               	incf	___flmul@temp+1,f
  2631  0321  3000               	movlw	0
  2632  0322  07D3               	addwf	___flmul@temp+1,f
  2633  0323                     i1l1808:
  2634  0323  0853               	movf	___flmul@temp+1,w
  2635  0324  3A80               	xorlw	128
  2636  0325  00FF               	movwf	btemp+1
  2637  0326  3080               	movlw	128
  2638  0327  027F               	subwf	btemp+1,w
  2639  0328  1D03               	skipz
  2640  0329  2B2C               	goto	u265_25
  2641  032A  30FF               	movlw	255
  2642  032B  0252               	subwf	___flmul@temp,w
  2643  032C                     u265_25:
  2644  032C  1C03               	skipc
  2645  032D  2B2F               	goto	u265_21
  2646  032E  2B30               	goto	u265_20
  2647  032F                     u265_21:
  2648  032F  2B3B               	goto	i1l1812
  2649  0330                     u265_20:
  2650  0330                     i1l1810:
  2651  0330  307F               	movlw	127
  2652  0331  1283               	bcf	3,5	;RP0=0, select bank0
  2653  0332  1303               	bcf	3,6	;RP1=0, select bank0
  2654  0333  00D1               	movwf	___flmul@prod+3
  2655  0334  3080               	movlw	128
  2656  0335  00D0               	movwf	___flmul@prod+2
  2657  0336  3000               	movlw	0
  2658  0337  00CF               	movwf	___flmul@prod+1
  2659  0338  3000               	movlw	0
  2660  0339  00CE               	movwf	___flmul@prod
  2661  033A  2B70               	goto	i1l569
  2662  033B                     i1l1812:
  2663  033B  1283               	bcf	3,5	;RP0=0, select bank0
  2664  033C  1303               	bcf	3,6	;RP1=0, select bank0
  2665  033D  0853               	movf	___flmul@temp+1,w
  2666  033E  3A80               	xorlw	128
  2667  033F  00FF               	movwf	btemp+1
  2668  0340  3080               	movlw	128
  2669  0341  027F               	subwf	btemp+1,w
  2670  0342  1D03               	skipz
  2671  0343  2B46               	goto	u266_25
  2672  0344  3001               	movlw	1
  2673  0345  0252               	subwf	___flmul@temp,w
  2674  0346                     u266_25:
  2675  0346  1803               	skipnc
  2676  0347  2B49               	goto	u266_21
  2677  0348  2B4A               	goto	u266_20
  2678  0349                     u266_21:
  2679  0349  2B56               	goto	i1l1818
  2680  034A                     u266_20:
  2681  034A                     i1l1814:
  2682  034A  3000               	movlw	0
  2683  034B  1283               	bcf	3,5	;RP0=0, select bank0
  2684  034C  1303               	bcf	3,6	;RP1=0, select bank0
  2685  034D  00D1               	movwf	___flmul@prod+3
  2686  034E  3000               	movlw	0
  2687  034F  00D0               	movwf	___flmul@prod+2
  2688  0350  3000               	movlw	0
  2689  0351  00CF               	movwf	___flmul@prod+1
  2690  0352  3000               	movlw	0
  2691  0353  00CE               	movwf	___flmul@prod
  2692  0354                     i1l1816:
  2693  0354  01C7               	clrf	___flmul@sign
  2694  0355  2B70               	goto	i1l569
  2695  0356                     i1l1818:
  2696  0356  1283               	bcf	3,5	;RP0=0, select bank0
  2697  0357  1303               	bcf	3,6	;RP1=0, select bank0
  2698  0358  0852               	movf	___flmul@temp,w
  2699  0359  00C2               	movwf	??___flmul
  2700  035A  0842               	movf	??___flmul,w
  2701  035B  00CD               	movwf	___flmul@bexp
  2702  035C  30FF               	movlw	255
  2703  035D  05CE               	andwf	___flmul@prod,f
  2704  035E  30FF               	movlw	255
  2705  035F  05CF               	andwf	___flmul@prod+1,f
  2706  0360  307F               	movlw	127
  2707  0361  05D0               	andwf	___flmul@prod+2,f
  2708  0362  3000               	movlw	0
  2709  0363  05D1               	andwf	___flmul@prod+3,f
  2710  0364                     i1l1820:
  2711  0364  1C4D               	btfss	___flmul@bexp,0
  2712  0365  2B67               	goto	u267_21
  2713  0366  2B68               	goto	u267_20
  2714  0367                     u267_21:
  2715  0367  2B69               	goto	i1l1824
  2716  0368                     u267_20:
  2717  0368                     i1l1822:
  2718  0368  17D0               	bsf	___flmul@prod+2,7
  2719  0369                     i1l1824:
  2720  0369  084D               	movf	___flmul@bexp,w
  2721  036A  00C2               	movwf	??___flmul
  2722  036B  1003               	clrc
  2723  036C  0C42               	rrf	??___flmul,w
  2724  036D  00C3               	movwf	??___flmul+1
  2725  036E  0843               	movf	??___flmul+1,w
  2726  036F  00D1               	movwf	___flmul@prod+3
  2727  0370                     i1l569:
  2728  0370  0847               	movf	___flmul@sign,w
  2729  0371  00C2               	movwf	??___flmul
  2730  0372  0842               	movf	??___flmul,w
  2731  0373  04D1               	iorwf	___flmul@prod+3,f
  2732  0374                     i1l1826:
  2733  0374  0851               	movf	___flmul@prod+3,w
  2734  0375  00BD               	movwf	?___flmul+3
  2735  0376  0850               	movf	___flmul@prod+2,w
  2736  0377  00BC               	movwf	?___flmul+2
  2737  0378  084F               	movf	___flmul@prod+1,w
  2738  0379  00BB               	movwf	?___flmul+1
  2739  037A  084E               	movf	___flmul@prod,w
  2740  037B  00BA               	movwf	?___flmul
  2741  037C                     i1l557:
  2742  037C  0008               	return
  2743  037D                     __end_of___flmul:
  2744                           
  2745                           	psect	text7
  2746  0D1A                     __ptext7:	
  2747 ;; *************** function __Umul8_16 *****************
  2748 ;; Defined at:
  2749 ;;		line 4 in file "C:\Program Files\Microchip\xc8\v2.36\pic\sources\c90\common\Umul8_16.c"
  2750 ;; Parameters:    Size  Location     Type
  2751 ;;  multiplier      1    wreg     unsigned char 
  2752 ;;  multiplicand    1    0[COMMON] unsigned char 
  2753 ;; Auto vars:     Size  Location     Type
  2754 ;;  multiplier      1    8[COMMON] unsigned char 
  2755 ;;  word_mpld       2    6[COMMON] unsigned int 
  2756 ;;  product         2    4[COMMON] unsigned int 
  2757 ;; Return value:  Size  Location     Type
  2758 ;;                  2    0[COMMON] unsigned int 
  2759 ;; Registers used:
  2760 ;;		wreg, status,2, status,0
  2761 ;; Tracked objects:
  2762 ;;		On entry : 0/0
  2763 ;;		On exit  : 0/0
  2764 ;;		Unchanged: 0/0
  2765 ;; Data sizes:     COMMON   BANK0   BANK1   BANK3   BANK2
  2766 ;;      Params:         2       0       0       0       0
  2767 ;;      Locals:         5       0       0       0       0
  2768 ;;      Temps:          2       0       0       0       0
  2769 ;;      Totals:         9       0       0       0       0
  2770 ;;Total ram usage:        9 bytes
  2771 ;; Hardware stack levels used: 1
  2772 ;; This function calls:
  2773 ;;		Nothing
  2774 ;; This function is called by:
  2775 ;;		___flmul
  2776 ;; This function uses a non-reentrant model
  2777 ;;
  2778                           
  2779  0D1A                     __Umul8_16:	
  2780                           ;psect for function __Umul8_16
  2781                           
  2782                           
  2783                           ;incstack = 0
  2784                           ; Regs used in __Umul8_16: [wreg+status,2+status,0]
  2785                           ;__Umul8_16@multiplier stored from wreg
  2786  0D1A  00F8               	movwf	__Umul8_16@multiplier
  2787  0D1B                     i1l1304:
  2788  0D1B  01F4               	clrf	__Umul8_16@product
  2789  0D1C  01F5               	clrf	__Umul8_16@product+1
  2790  0D1D                     i1l1306:
  2791  0D1D  0870               	movf	__Umul8_16@multiplicand,w
  2792  0D1E  00F2               	movwf	??__Umul8_16
  2793  0D1F  01F3               	clrf	??__Umul8_16+1
  2794  0D20  0872               	movf	??__Umul8_16,w
  2795  0D21  00F6               	movwf	__Umul8_16@word_mpld
  2796  0D22  0873               	movf	??__Umul8_16+1,w
  2797  0D23  00F7               	movwf	__Umul8_16@word_mpld+1
  2798  0D24                     i1l1308:
  2799  0D24  1C78               	btfss	__Umul8_16@multiplier,0
  2800  0D25  2D27               	goto	u143_21
  2801  0D26  2D28               	goto	u143_20
  2802  0D27                     u143_21:
  2803  0D27  2D2E               	goto	i1l576
  2804  0D28                     u143_20:
  2805  0D28                     i1l1310:
  2806  0D28  0876               	movf	__Umul8_16@word_mpld,w
  2807  0D29  07F4               	addwf	__Umul8_16@product,f
  2808  0D2A  1803               	skipnc
  2809  0D2B  0AF5               	incf	__Umul8_16@product+1,f
  2810  0D2C  0877               	movf	__Umul8_16@word_mpld+1,w
  2811  0D2D  07F5               	addwf	__Umul8_16@product+1,f
  2812  0D2E                     i1l576:
  2813  0D2E  3001               	movlw	1
  2814  0D2F                     u144_25:
  2815  0D2F  1003               	clrc
  2816  0D30  0DF6               	rlf	__Umul8_16@word_mpld,f
  2817  0D31  0DF7               	rlf	__Umul8_16@word_mpld+1,f
  2818  0D32  3EFF               	addlw	-1
  2819  0D33  1D03               	skipz
  2820  0D34  2D2F               	goto	u144_25
  2821  0D35  1003               	clrc
  2822  0D36  0CF8               	rrf	__Umul8_16@multiplier,f
  2823  0D37                     i1l1312:
  2824  0D37  0878               	movf	__Umul8_16@multiplier,w
  2825  0D38  1D03               	btfss	3,2
  2826  0D39  2D3B               	goto	u145_21
  2827  0D3A  2D3C               	goto	u145_20
  2828  0D3B                     u145_21:
  2829  0D3B  2D24               	goto	i1l1308
  2830  0D3C                     u145_20:
  2831  0D3C                     i1l1314:
  2832  0D3C  0875               	movf	__Umul8_16@product+1,w
  2833  0D3D  00F1               	movwf	?__Umul8_16+1
  2834  0D3E  0874               	movf	__Umul8_16@product,w
  2835  0D3F  00F0               	movwf	?__Umul8_16
  2836  0D40                     i1l578:
  2837  0D40  0008               	return
  2838  0D41                     __end_of__Umul8_16:
  2839                           
  2840                           	psect	text8
  2841  0605                     __ptext8:	
  2842 ;; *************** function ___fldiv *****************
  2843 ;; Defined at:
  2844 ;;		line 8 in file "C:\Program Files\Microchip\xc8\v2.36\pic\sources\c90\common\sprcdiv.c"
  2845 ;; Parameters:    Size  Location     Type
  2846 ;;  a               4    0[BANK0 ] unsigned int 
  2847 ;;  b               4    4[BANK0 ] unsigned int 
  2848 ;; Auto vars:     Size  Location     Type
  2849 ;;  grs             4   20[BANK0 ] unsigned long 
  2850 ;;  rem             4   13[BANK0 ] unsigned long 
  2851 ;;  new_exp         2   18[BANK0 ] int 
  2852 ;;  aexp            1   25[BANK0 ] unsigned char 
  2853 ;;  bexp            1   24[BANK0 ] unsigned char 
  2854 ;;  sign            1   17[BANK0 ] unsigned char 
  2855 ;; Return value:  Size  Location     Type
  2856 ;;                  4    0[BANK0 ] unsigned char 
  2857 ;; Registers used:
  2858 ;;		wreg, status,2, status,0, btemp+1
  2859 ;; Tracked objects:
  2860 ;;		On entry : 0/0
  2861 ;;		On exit  : 0/0
  2862 ;;		Unchanged: 0/0
  2863 ;; Data sizes:     COMMON   BANK0   BANK1   BANK3   BANK2
  2864 ;;      Params:         0       8       0       0       0
  2865 ;;      Locals:         0      13       0       0       0
  2866 ;;      Temps:          0       5       0       0       0
  2867 ;;      Totals:         0      26       0       0       0
  2868 ;;Total ram usage:       26 bytes
  2869 ;; Hardware stack levels used: 1
  2870 ;; This function calls:
  2871 ;;		Nothing
  2872 ;; This function is called by:
  2873 ;;		_map
  2874 ;; This function uses a non-reentrant model
  2875 ;;
  2876                           
  2877  0605                     ___fldiv:	
  2878                           ;psect for function ___fldiv
  2879                           
  2880  0605                     i1l1548:	
  2881                           ;incstack = 0
  2882                           ; Regs used in ___fldiv: [wreg+status,2+status,0+btemp+1]
  2883                           
  2884  0605  1283               	bcf	3,5	;RP0=0, select bank0
  2885  0606  1303               	bcf	3,6	;RP1=0, select bank0
  2886  0607  0827               	movf	___fldiv@b+3,w
  2887  0608  3980               	andlw	128
  2888  0609  00A8               	movwf	??___fldiv
  2889  060A  0828               	movf	??___fldiv,w
  2890  060B  00B1               	movwf	___fldiv@sign
  2891  060C                     i1l1550:
  2892  060C  0827               	movf	___fldiv@b+3,w
  2893  060D  00A8               	movwf	??___fldiv
  2894  060E  0728               	addwf	??___fldiv,w
  2895  060F  00A9               	movwf	??___fldiv+1
  2896  0610  0829               	movf	??___fldiv+1,w
  2897  0611  00B8               	movwf	___fldiv@bexp
  2898  0612                     i1l1552:
  2899  0612  1FA6               	btfss	___fldiv@b+2,7
  2900  0613  2E15               	goto	u202_21
  2901  0614  2E16               	goto	u202_20
  2902  0615                     u202_21:
  2903  0615  2E17               	goto	i1l1556
  2904  0616                     u202_20:
  2905  0616                     i1l1554:
  2906  0616  1438               	bsf	___fldiv@bexp,0
  2907  0617                     i1l1556:
  2908  0617  0838               	movf	___fldiv@bexp,w
  2909  0618  1903               	btfsc	3,2
  2910  0619  2E1B               	goto	u203_21
  2911  061A  2E1C               	goto	u203_20
  2912  061B                     u203_21:
  2913  061B  2E2C               	goto	i1l1566
  2914  061C                     u203_20:
  2915  061C                     i1l1558:
  2916  061C  0A38               	incf	___fldiv@bexp,w
  2917  061D  1D03               	btfss	3,2
  2918  061E  2E20               	goto	u204_21
  2919  061F  2E21               	goto	u204_20
  2920  0620                     u204_21:
  2921  0620  2E29               	goto	i1l1562
  2922  0621                     u204_20:
  2923  0621                     i1l1560:
  2924  0621  3000               	movlw	0
  2925  0622  00A7               	movwf	___fldiv@b+3
  2926  0623  3000               	movlw	0
  2927  0624  00A6               	movwf	___fldiv@b+2
  2928  0625  3000               	movlw	0
  2929  0626  00A5               	movwf	___fldiv@b+1
  2930  0627  3000               	movlw	0
  2931  0628  00A4               	movwf	___fldiv@b
  2932  0629                     i1l1562:
  2933  0629  17A6               	bsf	___fldiv@b+2,7
  2934  062A                     i1l1564:
  2935  062A  01A7               	clrf	___fldiv@b+3
  2936  062B  2E34               	goto	i1l1568
  2937  062C                     i1l1566:
  2938  062C  3000               	movlw	0
  2939  062D  00A7               	movwf	___fldiv@b+3
  2940  062E  3000               	movlw	0
  2941  062F  00A6               	movwf	___fldiv@b+2
  2942  0630  3000               	movlw	0
  2943  0631  00A5               	movwf	___fldiv@b+1
  2944  0632  3000               	movlw	0
  2945  0633  00A4               	movwf	___fldiv@b
  2946  0634                     i1l1568:
  2947  0634  0823               	movf	___fldiv@a+3,w
  2948  0635  3980               	andlw	128
  2949  0636  00A8               	movwf	??___fldiv
  2950  0637  0828               	movf	??___fldiv,w
  2951  0638  06B1               	xorwf	___fldiv@sign,f
  2952  0639                     i1l1570:
  2953  0639  0823               	movf	___fldiv@a+3,w
  2954  063A  00A8               	movwf	??___fldiv
  2955  063B  0728               	addwf	??___fldiv,w
  2956  063C  00A9               	movwf	??___fldiv+1
  2957  063D  0829               	movf	??___fldiv+1,w
  2958  063E  00B9               	movwf	___fldiv@aexp
  2959  063F                     i1l1572:
  2960  063F  1FA2               	btfss	___fldiv@a+2,7
  2961  0640  2E42               	goto	u205_21
  2962  0641  2E43               	goto	u205_20
  2963  0642                     u205_21:
  2964  0642  2E44               	goto	i1l1576
  2965  0643                     u205_20:
  2966  0643                     i1l1574:
  2967  0643  1439               	bsf	___fldiv@aexp,0
  2968  0644                     i1l1576:
  2969  0644  0839               	movf	___fldiv@aexp,w
  2970  0645  1903               	btfsc	3,2
  2971  0646  2E48               	goto	u206_21
  2972  0647  2E49               	goto	u206_20
  2973  0648                     u206_21:
  2974  0648  2E59               	goto	i1l1586
  2975  0649                     u206_20:
  2976  0649                     i1l1578:
  2977  0649  0A39               	incf	___fldiv@aexp,w
  2978  064A  1D03               	btfss	3,2
  2979  064B  2E4D               	goto	u207_21
  2980  064C  2E4E               	goto	u207_20
  2981  064D                     u207_21:
  2982  064D  2E56               	goto	i1l1582
  2983  064E                     u207_20:
  2984  064E                     i1l1580:
  2985  064E  3000               	movlw	0
  2986  064F  00A3               	movwf	___fldiv@a+3
  2987  0650  3000               	movlw	0
  2988  0651  00A2               	movwf	___fldiv@a+2
  2989  0652  3000               	movlw	0
  2990  0653  00A1               	movwf	___fldiv@a+1
  2991  0654  3000               	movlw	0
  2992  0655  00A0               	movwf	___fldiv@a
  2993  0656                     i1l1582:
  2994  0656  17A2               	bsf	___fldiv@a+2,7
  2995  0657                     i1l1584:
  2996  0657  01A3               	clrf	___fldiv@a+3
  2997  0658  2E61               	goto	i1l517
  2998  0659                     i1l1586:
  2999  0659  3000               	movlw	0
  3000  065A  00A3               	movwf	___fldiv@a+3
  3001  065B  3000               	movlw	0
  3002  065C  00A2               	movwf	___fldiv@a+2
  3003  065D  3000               	movlw	0
  3004  065E  00A1               	movwf	___fldiv@a+1
  3005  065F  3000               	movlw	0
  3006  0660  00A0               	movwf	___fldiv@a
  3007  0661                     i1l517:
  3008  0661  0823               	movf	___fldiv@a+3,w
  3009  0662  0422               	iorwf	___fldiv@a+2,w
  3010  0663  0421               	iorwf	___fldiv@a+1,w
  3011  0664  0420               	iorwf	___fldiv@a,w
  3012  0665  1D03               	skipz
  3013  0666  2E68               	goto	u208_21
  3014  0667  2E69               	goto	u208_20
  3015  0668                     u208_21:
  3016  0668  2E82               	goto	i1l1596
  3017  0669                     u208_20:
  3018  0669                     i1l1588:
  3019  0669  3000               	movlw	0
  3020  066A  00A7               	movwf	___fldiv@b+3
  3021  066B  3000               	movlw	0
  3022  066C  00A6               	movwf	___fldiv@b+2
  3023  066D  3000               	movlw	0
  3024  066E  00A5               	movwf	___fldiv@b+1
  3025  066F  3000               	movlw	0
  3026  0670  00A4               	movwf	___fldiv@b
  3027  0671  3080               	movlw	128
  3028  0672  04A6               	iorwf	___fldiv@b+2,f
  3029  0673  307F               	movlw	127
  3030  0674  04A7               	iorwf	___fldiv@b+3,f
  3031  0675                     i1l1590:
  3032  0675  0831               	movf	___fldiv@sign,w
  3033  0676  00A8               	movwf	??___fldiv
  3034  0677  0828               	movf	??___fldiv,w
  3035  0678  04A7               	iorwf	___fldiv@b+3,f
  3036  0679                     i1l1592:
  3037  0679  0827               	movf	___fldiv@b+3,w
  3038  067A  00A3               	movwf	?___fldiv+3
  3039  067B  0826               	movf	___fldiv@b+2,w
  3040  067C  00A2               	movwf	?___fldiv+2
  3041  067D  0825               	movf	___fldiv@b+1,w
  3042  067E  00A1               	movwf	?___fldiv+1
  3043  067F  0824               	movf	___fldiv@b,w
  3044  0680  00A0               	movwf	?___fldiv
  3045  0681  2FE1               	goto	i1l519
  3046  0682                     i1l1596:
  3047  0682  0838               	movf	___fldiv@bexp,w
  3048  0683  1D03               	btfss	3,2
  3049  0684  2E86               	goto	u209_21
  3050  0685  2E87               	goto	u209_20
  3051  0686                     u209_21:
  3052  0686  2E90               	goto	i1l1602
  3053  0687                     u209_20:
  3054  0687                     i1l1598:
  3055  0687  3000               	movlw	0
  3056  0688  00A3               	movwf	?___fldiv+3
  3057  0689  3000               	movlw	0
  3058  068A  00A2               	movwf	?___fldiv+2
  3059  068B  3000               	movlw	0
  3060  068C  00A1               	movwf	?___fldiv+1
  3061  068D  3000               	movlw	0
  3062  068E  00A0               	movwf	?___fldiv
  3063  068F  2FE1               	goto	i1l519
  3064  0690                     i1l1602:
  3065  0690  0838               	movf	___fldiv@bexp,w
  3066  0691  00A8               	movwf	??___fldiv
  3067  0692  01A9               	clrf	??___fldiv+1
  3068  0693  0829               	movf	??___fldiv+1,w
  3069  0694  00AB               	movwf	??___fldiv+3
  3070  0695  0839               	movf	___fldiv@aexp,w
  3071  0696  0228               	subwf	??___fldiv,w
  3072  0697  00AA               	movwf	??___fldiv+2
  3073  0698  1C03               	skipc
  3074  0699  03AB               	decf	??___fldiv+3,f
  3075  069A  082A               	movf	??___fldiv+2,w
  3076  069B  3E7F               	addlw	127
  3077  069C  00B2               	movwf	___fldiv@new_exp
  3078  069D  082B               	movf	??___fldiv+3,w
  3079  069E  1803               	skipnc
  3080  069F  3E01               	addlw	1
  3081  06A0  3E00               	addlw	0
  3082  06A1  00B3               	movwf	___fldiv@new_exp+1
  3083  06A2                     i1l1604:
  3084  06A2  0827               	movf	___fldiv@b+3,w
  3085  06A3  00B0               	movwf	___fldiv@rem+3
  3086  06A4  0826               	movf	___fldiv@b+2,w
  3087  06A5  00AF               	movwf	___fldiv@rem+2
  3088  06A6  0825               	movf	___fldiv@b+1,w
  3089  06A7  00AE               	movwf	___fldiv@rem+1
  3090  06A8  0824               	movf	___fldiv@b,w
  3091  06A9  00AD               	movwf	___fldiv@rem
  3092  06AA                     i1l1606:
  3093  06AA  3000               	movlw	0
  3094  06AB  00A7               	movwf	___fldiv@b+3
  3095  06AC  3000               	movlw	0
  3096  06AD  00A6               	movwf	___fldiv@b+2
  3097  06AE  3000               	movlw	0
  3098  06AF  00A5               	movwf	___fldiv@b+1
  3099  06B0  3000               	movlw	0
  3100  06B1  00A4               	movwf	___fldiv@b
  3101  06B2                     i1l1608:
  3102  06B2  3000               	movlw	0
  3103  06B3  00B7               	movwf	___fldiv@grs+3
  3104  06B4  3000               	movlw	0
  3105  06B5  00B6               	movwf	___fldiv@grs+2
  3106  06B6  3000               	movlw	0
  3107  06B7  00B5               	movwf	___fldiv@grs+1
  3108  06B8  3000               	movlw	0
  3109  06B9  00B4               	movwf	___fldiv@grs
  3110  06BA                     i1l1610:
  3111  06BA  01B9               	clrf	___fldiv@aexp
  3112  06BB  2F06               	goto	i1l1630
  3113  06BC                     i1l1612:
  3114  06BC  0839               	movf	___fldiv@aexp,w
  3115  06BD  1903               	btfsc	3,2
  3116  06BE  2EC0               	goto	u210_21
  3117  06BF  2EC1               	goto	u210_20
  3118  06C0                     u210_21:
  3119  06C0  2EE1               	goto	i1l1622
  3120  06C1                     u210_20:
  3121  06C1                     i1l1614:
  3122  06C1  3001               	movlw	1
  3123  06C2  00A8               	movwf	??___fldiv
  3124  06C3                     u211_25:
  3125  06C3  1003               	clrc
  3126  06C4  0DAD               	rlf	___fldiv@rem,f
  3127  06C5  0DAE               	rlf	___fldiv@rem+1,f
  3128  06C6  0DAF               	rlf	___fldiv@rem+2,f
  3129  06C7  0DB0               	rlf	___fldiv@rem+3,f
  3130  06C8  0BA8               	decfsz	??___fldiv,f
  3131  06C9  2EC3               	goto	u211_25
  3132  06CA  3001               	movlw	1
  3133  06CB  00A8               	movwf	??___fldiv
  3134  06CC                     u212_25:
  3135  06CC  1003               	clrc
  3136  06CD  0DA4               	rlf	___fldiv@b,f
  3137  06CE  0DA5               	rlf	___fldiv@b+1,f
  3138  06CF  0DA6               	rlf	___fldiv@b+2,f
  3139  06D0  0DA7               	rlf	___fldiv@b+3,f
  3140  06D1  0BA8               	decfsz	??___fldiv,f
  3141  06D2  2ECC               	goto	u212_25
  3142  06D3                     i1l1616:
  3143  06D3  1FB7               	btfss	___fldiv@grs+3,7
  3144  06D4  2ED6               	goto	u213_21
  3145  06D5  2ED7               	goto	u213_20
  3146  06D6                     u213_21:
  3147  06D6  2ED8               	goto	i1l1620
  3148  06D7                     u213_20:
  3149  06D7                     i1l1618:
  3150  06D7  1424               	bsf	___fldiv@b,0
  3151  06D8                     i1l1620:
  3152  06D8  3001               	movlw	1
  3153  06D9  00A8               	movwf	??___fldiv
  3154  06DA                     u214_25:
  3155  06DA  1003               	clrc
  3156  06DB  0DB4               	rlf	___fldiv@grs,f
  3157  06DC  0DB5               	rlf	___fldiv@grs+1,f
  3158  06DD  0DB6               	rlf	___fldiv@grs+2,f
  3159  06DE  0DB7               	rlf	___fldiv@grs+3,f
  3160  06DF  0BA8               	decfsz	??___fldiv,f
  3161  06E0  2EDA               	goto	u214_25
  3162  06E1                     i1l1622:
  3163  06E1  0823               	movf	___fldiv@a+3,w
  3164  06E2  0230               	subwf	___fldiv@rem+3,w
  3165  06E3  1D03               	skipz
  3166  06E4  2EEF               	goto	u215_25
  3167  06E5  0822               	movf	___fldiv@a+2,w
  3168  06E6  022F               	subwf	___fldiv@rem+2,w
  3169  06E7  1D03               	skipz
  3170  06E8  2EEF               	goto	u215_25
  3171  06E9  0821               	movf	___fldiv@a+1,w
  3172  06EA  022E               	subwf	___fldiv@rem+1,w
  3173  06EB  1D03               	skipz
  3174  06EC  2EEF               	goto	u215_25
  3175  06ED  0820               	movf	___fldiv@a,w
  3176  06EE  022D               	subwf	___fldiv@rem,w
  3177  06EF                     u215_25:
  3178  06EF  1C03               	skipc
  3179  06F0  2EF2               	goto	u215_21
  3180  06F1  2EF3               	goto	u215_20
  3181  06F2                     u215_21:
  3182  06F2  2F02               	goto	i1l1628
  3183  06F3                     u215_20:
  3184  06F3                     i1l1624:
  3185  06F3  1737               	bsf	___fldiv@grs+3,6
  3186  06F4                     i1l1626:
  3187  06F4  0820               	movf	___fldiv@a,w
  3188  06F5  02AD               	subwf	___fldiv@rem,f
  3189  06F6  0821               	movf	___fldiv@a+1,w
  3190  06F7  1C03               	skipc
  3191  06F8  0F21               	incfsz	___fldiv@a+1,w
  3192  06F9  02AE               	subwf	___fldiv@rem+1,f
  3193  06FA  0822               	movf	___fldiv@a+2,w
  3194  06FB  1C03               	skipc
  3195  06FC  0F22               	incfsz	___fldiv@a+2,w
  3196  06FD  02AF               	subwf	___fldiv@rem+2,f
  3197  06FE  0823               	movf	___fldiv@a+3,w
  3198  06FF  1C03               	skipc
  3199  0700  0F23               	incfsz	___fldiv@a+3,w
  3200  0701  02B0               	subwf	___fldiv@rem+3,f
  3201  0702                     i1l1628:
  3202  0702  3001               	movlw	1
  3203  0703  00A8               	movwf	??___fldiv
  3204  0704  0828               	movf	??___fldiv,w
  3205  0705  07B9               	addwf	___fldiv@aexp,f
  3206  0706                     i1l1630:
  3207  0706  301A               	movlw	26
  3208  0707  0239               	subwf	___fldiv@aexp,w
  3209  0708  1C03               	skipc
  3210  0709  2F0B               	goto	u216_21
  3211  070A  2F0C               	goto	u216_20
  3212  070B                     u216_21:
  3213  070B  2EBC               	goto	i1l1612
  3214  070C                     u216_20:
  3215  070C                     i1l1632:
  3216  070C  0830               	movf	___fldiv@rem+3,w
  3217  070D  042F               	iorwf	___fldiv@rem+2,w
  3218  070E  042E               	iorwf	___fldiv@rem+1,w
  3219  070F  042D               	iorwf	___fldiv@rem,w
  3220  0710  1903               	skipnz
  3221  0711  2F13               	goto	u217_21
  3222  0712  2F14               	goto	u217_20
  3223  0713                     u217_21:
  3224  0713  2F33               	goto	i1l1646
  3225  0714                     u217_20:
  3226  0714                     i1l1634:
  3227  0714  1434               	bsf	___fldiv@grs,0
  3228  0715  2F33               	goto	i1l1646
  3229  0716                     i1l1636:
  3230  0716  3001               	movlw	1
  3231  0717  00A8               	movwf	??___fldiv
  3232  0718                     u218_25:
  3233  0718  1003               	clrc
  3234  0719  0DA4               	rlf	___fldiv@b,f
  3235  071A  0DA5               	rlf	___fldiv@b+1,f
  3236  071B  0DA6               	rlf	___fldiv@b+2,f
  3237  071C  0DA7               	rlf	___fldiv@b+3,f
  3238  071D  0BA8               	decfsz	??___fldiv,f
  3239  071E  2F18               	goto	u218_25
  3240  071F                     i1l1638:
  3241  071F  1FB7               	btfss	___fldiv@grs+3,7
  3242  0720  2F22               	goto	u219_21
  3243  0721  2F23               	goto	u219_20
  3244  0722                     u219_21:
  3245  0722  2F24               	goto	i1l1642
  3246  0723                     u219_20:
  3247  0723                     i1l1640:
  3248  0723  1424               	bsf	___fldiv@b,0
  3249  0724                     i1l1642:
  3250  0724  3001               	movlw	1
  3251  0725  00A8               	movwf	??___fldiv
  3252  0726                     u220_25:
  3253  0726  1003               	clrc
  3254  0727  0DB4               	rlf	___fldiv@grs,f
  3255  0728  0DB5               	rlf	___fldiv@grs+1,f
  3256  0729  0DB6               	rlf	___fldiv@grs+2,f
  3257  072A  0DB7               	rlf	___fldiv@grs+3,f
  3258  072B  0BA8               	decfsz	??___fldiv,f
  3259  072C  2F26               	goto	u220_25
  3260  072D                     i1l1644:
  3261  072D  30FF               	movlw	255
  3262  072E  07B2               	addwf	___fldiv@new_exp,f
  3263  072F  1803               	skipnc
  3264  0730  0AB3               	incf	___fldiv@new_exp+1,f
  3265  0731  30FF               	movlw	255
  3266  0732  07B3               	addwf	___fldiv@new_exp+1,f
  3267  0733                     i1l1646:
  3268  0733  1FA6               	btfss	___fldiv@b+2,7
  3269  0734  2F36               	goto	u221_21
  3270  0735  2F37               	goto	u221_20
  3271  0736                     u221_21:
  3272  0736  2F16               	goto	i1l1636
  3273  0737                     u221_20:
  3274  0737                     i1l1648:
  3275  0737  01B9               	clrf	___fldiv@aexp
  3276  0738                     i1l1650:
  3277  0738  1FB7               	btfss	___fldiv@grs+3,7
  3278  0739  2F3B               	goto	u222_21
  3279  073A  2F3C               	goto	u222_20
  3280  073B                     u222_21:
  3281  073B  2F58               	goto	i1l1658
  3282  073C                     u222_20:
  3283  073C                     i1l1652:
  3284  073C  30FF               	movlw	255
  3285  073D  0534               	andwf	___fldiv@grs,w
  3286  073E  00A8               	movwf	??___fldiv
  3287  073F  30FF               	movlw	255
  3288  0740  0535               	andwf	___fldiv@grs+1,w
  3289  0741  00A9               	movwf	??___fldiv+1
  3290  0742  30FF               	movlw	255
  3291  0743  0536               	andwf	___fldiv@grs+2,w
  3292  0744  00AA               	movwf	??___fldiv+2
  3293  0745  307F               	movlw	127
  3294  0746  0537               	andwf	___fldiv@grs+3,w
  3295  0747  00AB               	movwf	??___fldiv+3
  3296  0748  082B               	movf	??___fldiv+3,w
  3297  0749  042A               	iorwf	??___fldiv+2,w
  3298  074A  0429               	iorwf	??___fldiv+1,w
  3299  074B  0428               	iorwf	??___fldiv,w
  3300  074C  1903               	skipnz
  3301  074D  2F4F               	goto	u223_21
  3302  074E  2F50               	goto	u223_20
  3303  074F                     u223_21:
  3304  074F  2F53               	goto	i1l533
  3305  0750                     u223_20:
  3306  0750                     i1l1654:
  3307  0750  01B9               	clrf	___fldiv@aexp
  3308  0751  0AB9               	incf	___fldiv@aexp,f
  3309  0752  2F58               	goto	i1l1658
  3310  0753                     i1l533:
  3311  0753  1C24               	btfss	___fldiv@b,0
  3312  0754  2F56               	goto	u224_21
  3313  0755  2F57               	goto	u224_20
  3314  0756                     u224_21:
  3315  0756  2F58               	goto	i1l1658
  3316  0757                     u224_20:
  3317  0757  2F50               	goto	i1l1654
  3318  0758                     i1l1658:
  3319  0758  0839               	movf	___fldiv@aexp,w
  3320  0759  1903               	btfsc	3,2
  3321  075A  2F5C               	goto	u225_21
  3322  075B  2F5D               	goto	u225_20
  3323  075C                     u225_21:
  3324  075C  2F8E               	goto	i1l1668
  3325  075D                     u225_20:
  3326  075D                     i1l1660:
  3327  075D  3001               	movlw	1
  3328  075E  07A4               	addwf	___fldiv@b,f
  3329  075F  3000               	movlw	0
  3330  0760  1803               	skipnc
  3331  0761  3001               	movlw	1
  3332  0762  07A5               	addwf	___fldiv@b+1,f
  3333  0763  3000               	movlw	0
  3334  0764  1803               	skipnc
  3335  0765  3001               	movlw	1
  3336  0766  07A6               	addwf	___fldiv@b+2,f
  3337  0767  3000               	movlw	0
  3338  0768  1803               	skipnc
  3339  0769  3001               	movlw	1
  3340  076A  07A7               	addwf	___fldiv@b+3,f
  3341  076B                     i1l1662:
  3342  076B  1C27               	btfss	___fldiv@b+3,0
  3343  076C  2F6E               	goto	u226_21
  3344  076D  2F6F               	goto	u226_20
  3345  076E                     u226_21:
  3346  076E  2F8E               	goto	i1l1668
  3347  076F                     u226_20:
  3348  076F                     i1l1664:
  3349  076F  0824               	movf	___fldiv@b,w
  3350  0770  00A8               	movwf	??___fldiv
  3351  0771  0825               	movf	___fldiv@b+1,w
  3352  0772  00A9               	movwf	??___fldiv+1
  3353  0773  0826               	movf	___fldiv@b+2,w
  3354  0774  00AA               	movwf	??___fldiv+2
  3355  0775  0827               	movf	___fldiv@b+3,w
  3356  0776  00AB               	movwf	??___fldiv+3
  3357  0777  3001               	movlw	1
  3358  0778  00AC               	movwf	??___fldiv+4
  3359  0779                     u227_25:
  3360  0779  0D2B               	rlf	??___fldiv+3,w
  3361  077A  0CAB               	rrf	??___fldiv+3,f
  3362  077B  0CAA               	rrf	??___fldiv+2,f
  3363  077C  0CA9               	rrf	??___fldiv+1,f
  3364  077D  0CA8               	rrf	??___fldiv,f
  3365  077E                     u227_20:
  3366  077E  0BAC               	decfsz	??___fldiv+4,f
  3367  077F  2F79               	goto	u227_25
  3368  0780  082B               	movf	??___fldiv+3,w
  3369  0781  00A7               	movwf	___fldiv@b+3
  3370  0782  082A               	movf	??___fldiv+2,w
  3371  0783  00A6               	movwf	___fldiv@b+2
  3372  0784  0829               	movf	??___fldiv+1,w
  3373  0785  00A5               	movwf	___fldiv@b+1
  3374  0786  0828               	movf	??___fldiv,w
  3375  0787  00A4               	movwf	___fldiv@b
  3376  0788                     i1l1666:
  3377  0788  3001               	movlw	1
  3378  0789  07B2               	addwf	___fldiv@new_exp,f
  3379  078A  1803               	skipnc
  3380  078B  0AB3               	incf	___fldiv@new_exp+1,f
  3381  078C  3000               	movlw	0
  3382  078D  07B3               	addwf	___fldiv@new_exp+1,f
  3383  078E                     i1l1668:
  3384  078E  0833               	movf	___fldiv@new_exp+1,w
  3385  078F  3A80               	xorlw	128
  3386  0790  00FF               	movwf	btemp+1
  3387  0791  3080               	movlw	128
  3388  0792  027F               	subwf	btemp+1,w
  3389  0793  1D03               	skipz
  3390  0794  2F97               	goto	u228_25
  3391  0795  30FF               	movlw	255
  3392  0796  0232               	subwf	___fldiv@new_exp,w
  3393  0797                     u228_25:
  3394  0797  1C03               	skipc
  3395  0798  2F9A               	goto	u228_21
  3396  0799  2F9B               	goto	u228_20
  3397  079A                     u228_21:
  3398  079A  2FA9               	goto	i1l1672
  3399  079B                     u228_20:
  3400  079B                     i1l1670:
  3401  079B  30FF               	movlw	255
  3402  079C  1283               	bcf	3,5	;RP0=0, select bank0
  3403  079D  1303               	bcf	3,6	;RP1=0, select bank0
  3404  079E  00B2               	movwf	___fldiv@new_exp
  3405  079F  3000               	movlw	0
  3406  07A0  00B3               	movwf	___fldiv@new_exp+1
  3407  07A1  3000               	movlw	0
  3408  07A2  00A7               	movwf	___fldiv@b+3
  3409  07A3  3000               	movlw	0
  3410  07A4  00A6               	movwf	___fldiv@b+2
  3411  07A5  3000               	movlw	0
  3412  07A6  00A5               	movwf	___fldiv@b+1
  3413  07A7  3000               	movlw	0
  3414  07A8  00A4               	movwf	___fldiv@b
  3415  07A9                     i1l1672:
  3416  07A9  1283               	bcf	3,5	;RP0=0, select bank0
  3417  07AA  1303               	bcf	3,6	;RP1=0, select bank0
  3418  07AB  0833               	movf	___fldiv@new_exp+1,w
  3419  07AC  3A80               	xorlw	128
  3420  07AD  00FF               	movwf	btemp+1
  3421  07AE  3080               	movlw	128
  3422  07AF  027F               	subwf	btemp+1,w
  3423  07B0  1D03               	skipz
  3424  07B1  2FB4               	goto	u229_25
  3425  07B2  3001               	movlw	1
  3426  07B3  0232               	subwf	___fldiv@new_exp,w
  3427  07B4                     u229_25:
  3428  07B4  1803               	skipnc
  3429  07B5  2FB7               	goto	u229_21
  3430  07B6  2FB8               	goto	u229_20
  3431  07B7                     u229_21:
  3432  07B7  2FC5               	goto	i1l539
  3433  07B8                     u229_20:
  3434  07B8                     i1l1674:
  3435  07B8  1283               	bcf	3,5	;RP0=0, select bank0
  3436  07B9  1303               	bcf	3,6	;RP1=0, select bank0
  3437  07BA  01B2               	clrf	___fldiv@new_exp
  3438  07BB  01B3               	clrf	___fldiv@new_exp+1
  3439  07BC                     i1l1676:
  3440  07BC  3000               	movlw	0
  3441  07BD  00A7               	movwf	___fldiv@b+3
  3442  07BE  3000               	movlw	0
  3443  07BF  00A6               	movwf	___fldiv@b+2
  3444  07C0  3000               	movlw	0
  3445  07C1  00A5               	movwf	___fldiv@b+1
  3446  07C2  3000               	movlw	0
  3447  07C3  00A4               	movwf	___fldiv@b
  3448  07C4                     i1l1678:
  3449  07C4  01B1               	clrf	___fldiv@sign
  3450  07C5                     i1l539:
  3451  07C5  1283               	bcf	3,5	;RP0=0, select bank0
  3452  07C6  1303               	bcf	3,6	;RP1=0, select bank0
  3453  07C7  0832               	movf	___fldiv@new_exp,w
  3454  07C8  00A8               	movwf	??___fldiv
  3455  07C9  0828               	movf	??___fldiv,w
  3456  07CA  00B8               	movwf	___fldiv@bexp
  3457  07CB                     i1l1680:
  3458  07CB  1C38               	btfss	___fldiv@bexp,0
  3459  07CC  2FCE               	goto	u230_21
  3460  07CD  2FCF               	goto	u230_20
  3461  07CE                     u230_21:
  3462  07CE  2FD1               	goto	i1l1684
  3463  07CF                     u230_20:
  3464  07CF                     i1l1682:
  3465  07CF  17A6               	bsf	___fldiv@b+2,7
  3466  07D0  2FD5               	goto	i1l541
  3467  07D1                     i1l1684:
  3468  07D1  307F               	movlw	127
  3469  07D2  00A8               	movwf	??___fldiv
  3470  07D3  0828               	movf	??___fldiv,w
  3471  07D4  05A6               	andwf	___fldiv@b+2,f
  3472  07D5                     i1l541:
  3473  07D5  0838               	movf	___fldiv@bexp,w
  3474  07D6  00A8               	movwf	??___fldiv
  3475  07D7  1003               	clrc
  3476  07D8  0C28               	rrf	??___fldiv,w
  3477  07D9  00A9               	movwf	??___fldiv+1
  3478  07DA  0829               	movf	??___fldiv+1,w
  3479  07DB  00A7               	movwf	___fldiv@b+3
  3480  07DC  0831               	movf	___fldiv@sign,w
  3481  07DD  00A8               	movwf	??___fldiv
  3482  07DE  0828               	movf	??___fldiv,w
  3483  07DF  04A7               	iorwf	___fldiv@b+3,f
  3484  07E0  2E79               	goto	i1l1592
  3485  07E1                     i1l519:
  3486  07E1  0008               	return
  3487  07E2                     __end_of___fldiv:
  3488                           
  3489                           	psect	text9
  3490  037D                     __ptext9:	
  3491 ;; *************** function ___fladd *****************
  3492 ;; Defined at:
  3493 ;;		line 10 in file "C:\Program Files\Microchip\xc8\v2.36\pic\sources\c90\common\sprcadd.c"
  3494 ;; Parameters:    Size  Location     Type
  3495 ;;  b               4   52[BANK0 ] unsigned char 
  3496 ;;  a               4   56[BANK0 ] unsigned char 
  3497 ;; Auto vars:     Size  Location     Type
  3498 ;;  grs             1   71[BANK0 ] unsigned char 
  3499 ;;  bexp            1   70[BANK0 ] unsigned char 
  3500 ;;  aexp            1   69[BANK0 ] unsigned char 
  3501 ;;  signs           1   68[BANK0 ] unsigned char 
  3502 ;; Return value:  Size  Location     Type
  3503 ;;                  4   52[BANK0 ] unsigned char 
  3504 ;; Registers used:
  3505 ;;		wreg, status,2, status,0, btemp+1
  3506 ;; Tracked objects:
  3507 ;;		On entry : 0/0
  3508 ;;		On exit  : 0/0
  3509 ;;		Unchanged: 0/0
  3510 ;; Data sizes:     COMMON   BANK0   BANK1   BANK3   BANK2
  3511 ;;      Params:         0       8       0       0       0
  3512 ;;      Locals:         0       4       0       0       0
  3513 ;;      Temps:          0       8       0       0       0
  3514 ;;      Totals:         0      20       0       0       0
  3515 ;;Total ram usage:       20 bytes
  3516 ;; Hardware stack levels used: 1
  3517 ;; This function calls:
  3518 ;;		Nothing
  3519 ;; This function is called by:
  3520 ;;		_map
  3521 ;; This function uses a non-reentrant model
  3522 ;;
  3523                           
  3524  037D                     ___fladd:	
  3525                           ;psect for function ___fladd
  3526                           
  3527  037D                     i1l1354:	
  3528                           ;incstack = 0
  3529                           ; Regs used in ___fladd: [wreg+status,2+status,0+btemp+1]
  3530                           
  3531  037D  1283               	bcf	3,5	;RP0=0, select bank0
  3532  037E  1303               	bcf	3,6	;RP1=0, select bank0
  3533  037F  0857               	movf	___fladd@b+3,w
  3534  0380  3980               	andlw	128
  3535  0381  00DC               	movwf	??___fladd
  3536  0382  085C               	movf	??___fladd,w
  3537  0383  00E4               	movwf	___fladd@signs
  3538  0384                     i1l1356:
  3539  0384  0857               	movf	___fladd@b+3,w
  3540  0385  00DC               	movwf	??___fladd
  3541  0386  075C               	addwf	??___fladd,w
  3542  0387  00DD               	movwf	??___fladd+1
  3543  0388  085D               	movf	??___fladd+1,w
  3544  0389  00E6               	movwf	___fladd@bexp
  3545  038A                     i1l1358:
  3546  038A  1FD6               	btfss	___fladd@b+2,7
  3547  038B  2B8D               	goto	u156_21
  3548  038C  2B8E               	goto	u156_20
  3549  038D                     u156_21:
  3550  038D  2B8F               	goto	i1l1362
  3551  038E                     u156_20:
  3552  038E                     i1l1360:
  3553  038E  1466               	bsf	___fladd@bexp,0
  3554  038F                     i1l1362:
  3555  038F  0866               	movf	___fladd@bexp,w
  3556  0390  1903               	btfsc	3,2
  3557  0391  2B93               	goto	u157_21
  3558  0392  2B94               	goto	u157_20
  3559  0393                     u157_21:
  3560  0393  2BA4               	goto	i1l1372
  3561  0394                     u157_20:
  3562  0394                     i1l1364:
  3563  0394  0A66               	incf	___fladd@bexp,w
  3564  0395  1D03               	btfss	3,2
  3565  0396  2B98               	goto	u158_21
  3566  0397  2B99               	goto	u158_20
  3567  0398                     u158_21:
  3568  0398  2BA1               	goto	i1l1368
  3569  0399                     u158_20:
  3570  0399                     i1l1366:
  3571  0399  3000               	movlw	0
  3572  039A  00D7               	movwf	___fladd@b+3
  3573  039B  3000               	movlw	0
  3574  039C  00D6               	movwf	___fladd@b+2
  3575  039D  3000               	movlw	0
  3576  039E  00D5               	movwf	___fladd@b+1
  3577  039F  3000               	movlw	0
  3578  03A0  00D4               	movwf	___fladd@b
  3579  03A1                     i1l1368:
  3580  03A1  17D6               	bsf	___fladd@b+2,7
  3581  03A2                     i1l1370:
  3582  03A2  01D7               	clrf	___fladd@b+3
  3583  03A3  2BAC               	goto	i1l1374
  3584  03A4                     i1l1372:
  3585  03A4  3000               	movlw	0
  3586  03A5  00D7               	movwf	___fladd@b+3
  3587  03A6  3000               	movlw	0
  3588  03A7  00D6               	movwf	___fladd@b+2
  3589  03A8  3000               	movlw	0
  3590  03A9  00D5               	movwf	___fladd@b+1
  3591  03AA  3000               	movlw	0
  3592  03AB  00D4               	movwf	___fladd@b
  3593  03AC                     i1l1374:
  3594  03AC  085B               	movf	___fladd@a+3,w
  3595  03AD  3980               	andlw	128
  3596  03AE  00DC               	movwf	??___fladd
  3597  03AF  085C               	movf	??___fladd,w
  3598  03B0  00E5               	movwf	___fladd@aexp
  3599  03B1                     i1l1376:
  3600  03B1  0865               	movf	___fladd@aexp,w
  3601  03B2  0664               	xorwf	___fladd@signs,w
  3602  03B3  1903               	skipnz
  3603  03B4  2BB6               	goto	u159_21
  3604  03B5  2BB7               	goto	u159_20
  3605  03B6                     u159_21:
  3606  03B6  2BB8               	goto	i1l1380
  3607  03B7                     u159_20:
  3608  03B7                     i1l1378:
  3609  03B7  1764               	bsf	___fladd@signs,6
  3610  03B8                     i1l1380:
  3611  03B8  085B               	movf	___fladd@a+3,w
  3612  03B9  00DC               	movwf	??___fladd
  3613  03BA  075C               	addwf	??___fladd,w
  3614  03BB  00DD               	movwf	??___fladd+1
  3615  03BC  085D               	movf	??___fladd+1,w
  3616  03BD  00E5               	movwf	___fladd@aexp
  3617  03BE                     i1l1382:
  3618  03BE  1FDA               	btfss	___fladd@a+2,7
  3619  03BF  2BC1               	goto	u160_21
  3620  03C0  2BC2               	goto	u160_20
  3621  03C1                     u160_21:
  3622  03C1  2BC3               	goto	i1l1386
  3623  03C2                     u160_20:
  3624  03C2                     i1l1384:
  3625  03C2  1465               	bsf	___fladd@aexp,0
  3626  03C3                     i1l1386:
  3627  03C3  0865               	movf	___fladd@aexp,w
  3628  03C4  1903               	btfsc	3,2
  3629  03C5  2BC7               	goto	u161_21
  3630  03C6  2BC8               	goto	u161_20
  3631  03C7                     u161_21:
  3632  03C7  2BD8               	goto	i1l1396
  3633  03C8                     u161_20:
  3634  03C8                     i1l1388:
  3635  03C8  0A65               	incf	___fladd@aexp,w
  3636  03C9  1D03               	btfss	3,2
  3637  03CA  2BCC               	goto	u162_21
  3638  03CB  2BCD               	goto	u162_20
  3639  03CC                     u162_21:
  3640  03CC  2BD5               	goto	i1l1392
  3641  03CD                     u162_20:
  3642  03CD                     i1l1390:
  3643  03CD  3000               	movlw	0
  3644  03CE  00DB               	movwf	___fladd@a+3
  3645  03CF  3000               	movlw	0
  3646  03D0  00DA               	movwf	___fladd@a+2
  3647  03D1  3000               	movlw	0
  3648  03D2  00D9               	movwf	___fladd@a+1
  3649  03D3  3000               	movlw	0
  3650  03D4  00D8               	movwf	___fladd@a
  3651  03D5                     i1l1392:
  3652  03D5  17DA               	bsf	___fladd@a+2,7
  3653  03D6                     i1l1394:
  3654  03D6  01DB               	clrf	___fladd@a+3
  3655  03D7  2BE0               	goto	i1l461
  3656  03D8                     i1l1396:
  3657  03D8  3000               	movlw	0
  3658  03D9  00DB               	movwf	___fladd@a+3
  3659  03DA  3000               	movlw	0
  3660  03DB  00DA               	movwf	___fladd@a+2
  3661  03DC  3000               	movlw	0
  3662  03DD  00D9               	movwf	___fladd@a+1
  3663  03DE  3000               	movlw	0
  3664  03DF  00D8               	movwf	___fladd@a
  3665  03E0                     i1l461:
  3666  03E0  0866               	movf	___fladd@bexp,w
  3667  03E1  0265               	subwf	___fladd@aexp,w
  3668  03E2  1803               	skipnc
  3669  03E3  2BE5               	goto	u163_21
  3670  03E4  2BE6               	goto	u163_20
  3671  03E5                     u163_21:
  3672  03E5  2C2A               	goto	i1l1432
  3673  03E6                     u163_20:
  3674  03E6                     i1l1398:
  3675  03E6  1F64               	btfss	___fladd@signs,6
  3676  03E7  2BE9               	goto	u164_21
  3677  03E8  2BEA               	goto	u164_20
  3678  03E9                     u164_21:
  3679  03E9  2BEE               	goto	i1l1402
  3680  03EA                     u164_20:
  3681  03EA                     i1l1400:
  3682  03EA  3080               	movlw	128
  3683  03EB  00DC               	movwf	??___fladd
  3684  03EC  085C               	movf	??___fladd,w
  3685  03ED  06E4               	xorwf	___fladd@signs,f
  3686  03EE                     i1l1402:
  3687  03EE  0866               	movf	___fladd@bexp,w
  3688  03EF  00DC               	movwf	??___fladd
  3689  03F0  085C               	movf	??___fladd,w
  3690  03F1  00E7               	movwf	___fladd@grs
  3691  03F2                     i1l1404:
  3692  03F2  0865               	movf	___fladd@aexp,w
  3693  03F3  00DC               	movwf	??___fladd
  3694  03F4  085C               	movf	??___fladd,w
  3695  03F5  00E6               	movwf	___fladd@bexp
  3696  03F6                     i1l1406:
  3697  03F6  0867               	movf	___fladd@grs,w
  3698  03F7  00DC               	movwf	??___fladd
  3699  03F8  085C               	movf	??___fladd,w
  3700  03F9  00E5               	movwf	___fladd@aexp
  3701  03FA                     i1l1408:
  3702  03FA  0854               	movf	___fladd@b,w
  3703  03FB  00DC               	movwf	??___fladd
  3704  03FC  085C               	movf	??___fladd,w
  3705  03FD  00E7               	movwf	___fladd@grs
  3706  03FE                     i1l1410:
  3707  03FE  0858               	movf	___fladd@a,w
  3708  03FF  00DC               	movwf	??___fladd
  3709  0400  085C               	movf	??___fladd,w
  3710  0401  00D4               	movwf	___fladd@b
  3711  0402                     i1l1412:
  3712  0402  0867               	movf	___fladd@grs,w
  3713  0403  00DC               	movwf	??___fladd
  3714  0404  085C               	movf	??___fladd,w
  3715  0405  00D8               	movwf	___fladd@a
  3716  0406                     i1l1414:
  3717  0406  0855               	movf	___fladd@b+1,w
  3718  0407  00DC               	movwf	??___fladd
  3719  0408  085C               	movf	??___fladd,w
  3720  0409  00E7               	movwf	___fladd@grs
  3721  040A                     i1l1416:
  3722  040A  0859               	movf	___fladd@a+1,w
  3723  040B  00DC               	movwf	??___fladd
  3724  040C  085C               	movf	??___fladd,w
  3725  040D  00D5               	movwf	___fladd@b+1
  3726  040E                     i1l1418:
  3727  040E  0867               	movf	___fladd@grs,w
  3728  040F  00DC               	movwf	??___fladd
  3729  0410  085C               	movf	??___fladd,w
  3730  0411  00D9               	movwf	___fladd@a+1
  3731  0412                     i1l1420:
  3732  0412  0856               	movf	___fladd@b+2,w
  3733  0413  00DC               	movwf	??___fladd
  3734  0414  085C               	movf	??___fladd,w
  3735  0415  00E7               	movwf	___fladd@grs
  3736  0416                     i1l1422:
  3737  0416  085A               	movf	___fladd@a+2,w
  3738  0417  00DC               	movwf	??___fladd
  3739  0418  085C               	movf	??___fladd,w
  3740  0419  00D6               	movwf	___fladd@b+2
  3741  041A                     i1l1424:
  3742  041A  0867               	movf	___fladd@grs,w
  3743  041B  00DC               	movwf	??___fladd
  3744  041C  085C               	movf	??___fladd,w
  3745  041D  00DA               	movwf	___fladd@a+2
  3746  041E                     i1l1426:
  3747  041E  0857               	movf	___fladd@b+3,w
  3748  041F  00DC               	movwf	??___fladd
  3749  0420  085C               	movf	??___fladd,w
  3750  0421  00E7               	movwf	___fladd@grs
  3751  0422                     i1l1428:
  3752  0422  085B               	movf	___fladd@a+3,w
  3753  0423  00DC               	movwf	??___fladd
  3754  0424  085C               	movf	??___fladd,w
  3755  0425  00D7               	movwf	___fladd@b+3
  3756  0426                     i1l1430:
  3757  0426  0867               	movf	___fladd@grs,w
  3758  0427  00DC               	movwf	??___fladd
  3759  0428  085C               	movf	??___fladd,w
  3760  0429  00DB               	movwf	___fladd@a+3
  3761  042A                     i1l1432:
  3762  042A  01E7               	clrf	___fladd@grs
  3763  042B                     i1l1434:
  3764  042B  0865               	movf	___fladd@aexp,w
  3765  042C  00DC               	movwf	??___fladd
  3766  042D  01DD               	clrf	??___fladd+1
  3767  042E  085D               	movf	??___fladd+1,w
  3768  042F  00DF               	movwf	??___fladd+3
  3769  0430  0866               	movf	___fladd@bexp,w
  3770  0431  025C               	subwf	??___fladd,w
  3771  0432  00DE               	movwf	??___fladd+2
  3772  0433  1C03               	skipc
  3773  0434  03DF               	decf	??___fladd+3,f
  3774  0435  085F               	movf	??___fladd+3,w
  3775  0436  3A80               	xorlw	128
  3776  0437  00FF               	movwf	btemp+1
  3777  0438  3080               	movlw	128
  3778  0439  027F               	subwf	btemp+1,w
  3779  043A  1D03               	skipz
  3780  043B  2C3E               	goto	u165_25
  3781  043C  301A               	movlw	26
  3782  043D  025E               	subwf	??___fladd+2,w
  3783  043E                     u165_25:
  3784  043E  1C03               	skipc
  3785  043F  2C41               	goto	u165_21
  3786  0440  2C42               	goto	u165_20
  3787  0441                     u165_21:
  3788  0441  2C7F               	goto	i1l1450
  3789  0442                     u165_20:
  3790  0442                     i1l1436:
  3791  0442  1283               	bcf	3,5	;RP0=0, select bank0
  3792  0443  1303               	bcf	3,6	;RP1=0, select bank0
  3793  0444  0857               	movf	___fladd@b+3,w
  3794  0445  0456               	iorwf	___fladd@b+2,w
  3795  0446  0455               	iorwf	___fladd@b+1,w
  3796  0447  0454               	iorwf	___fladd@b,w
  3797  0448  1D03               	skipz
  3798  0449  2C4B               	goto	u166_21
  3799  044A  2C4D               	goto	u166_20
  3800  044B                     u166_21:
  3801  044B  3001               	movlw	1
  3802  044C  2C4E               	goto	u167_20
  3803  044D                     u166_20:
  3804  044D  3000               	movlw	0
  3805  044E                     u167_20:
  3806  044E  00DC               	movwf	??___fladd
  3807  044F  085C               	movf	??___fladd,w
  3808  0450  00E7               	movwf	___fladd@grs
  3809  0451  3000               	movlw	0
  3810  0452  00D7               	movwf	___fladd@b+3
  3811  0453  3000               	movlw	0
  3812  0454  00D6               	movwf	___fladd@b+2
  3813  0455  3000               	movlw	0
  3814  0456  00D5               	movwf	___fladd@b+1
  3815  0457  3000               	movlw	0
  3816  0458  00D4               	movwf	___fladd@b
  3817  0459  0865               	movf	___fladd@aexp,w
  3818  045A  00DC               	movwf	??___fladd
  3819  045B  085C               	movf	??___fladd,w
  3820  045C  00E6               	movwf	___fladd@bexp
  3821  045D  2C87               	goto	i1l465
  3822  045E                     i1l467:
  3823  045E  1C67               	btfss	___fladd@grs,0
  3824  045F  2C61               	goto	u168_21
  3825  0460  2C62               	goto	u168_20
  3826  0461                     u168_21:
  3827  0461  2C6B               	goto	i1l1440
  3828  0462                     u168_20:
  3829  0462                     i1l1438:
  3830  0462  0867               	movf	___fladd@grs,w
  3831  0463  00DC               	movwf	??___fladd
  3832  0464  1003               	clrc
  3833  0465  0C5C               	rrf	??___fladd,w
  3834  0466  3801               	iorlw	1
  3835  0467  00DD               	movwf	??___fladd+1
  3836  0468  085D               	movf	??___fladd+1,w
  3837  0469  00E7               	movwf	___fladd@grs
  3838  046A  2C6D               	goto	i1l1442
  3839  046B                     i1l1440:
  3840  046B  1003               	clrc
  3841  046C  0CE7               	rrf	___fladd@grs,f
  3842  046D                     i1l1442:
  3843  046D  1C54               	btfss	___fladd@b,0
  3844  046E  2C70               	goto	u169_21
  3845  046F  2C71               	goto	u169_20
  3846  0470                     u169_21:
  3847  0470  2C72               	goto	i1l1446
  3848  0471                     u169_20:
  3849  0471                     i1l1444:
  3850  0471  17E7               	bsf	___fladd@grs,7
  3851  0472                     i1l1446:
  3852  0472  3001               	movlw	1
  3853  0473  00DC               	movwf	??___fladd
  3854  0474                     u170_25:
  3855  0474  0D57               	rlf	___fladd@b+3,w
  3856  0475  0CD7               	rrf	___fladd@b+3,f
  3857  0476  0CD6               	rrf	___fladd@b+2,f
  3858  0477  0CD5               	rrf	___fladd@b+1,f
  3859  0478  0CD4               	rrf	___fladd@b,f
  3860  0479  0BDC               	decfsz	??___fladd& (0+127),f
  3861  047A  2C74               	goto	u170_25
  3862  047B                     i1l1448:
  3863  047B  3001               	movlw	1
  3864  047C  00DC               	movwf	??___fladd
  3865  047D  085C               	movf	??___fladd,w
  3866  047E  07E6               	addwf	___fladd@bexp,f
  3867  047F                     i1l1450:
  3868  047F  1283               	bcf	3,5	;RP0=0, select bank0
  3869  0480  1303               	bcf	3,6	;RP1=0, select bank0
  3870  0481  0865               	movf	___fladd@aexp,w
  3871  0482  0266               	subwf	___fladd@bexp,w
  3872  0483  1C03               	skipc
  3873  0484  2C86               	goto	u171_21
  3874  0485  2C87               	goto	u171_20
  3875  0486                     u171_21:
  3876  0486  2C5E               	goto	i1l467
  3877  0487                     u171_20:
  3878  0487                     i1l465:
  3879  0487  1B64               	btfsc	___fladd@signs,6
  3880  0488  2C8A               	goto	u172_21
  3881  0489  2C8B               	goto	u172_20
  3882  048A                     u172_21:
  3883  048A  2CD6               	goto	i1l1476
  3884  048B                     u172_20:
  3885  048B                     i1l1452:
  3886  048B  0866               	movf	___fladd@bexp,w
  3887  048C  1D03               	btfss	3,2
  3888  048D  2C8F               	goto	u173_21
  3889  048E  2C90               	goto	u173_20
  3890  048F                     u173_21:
  3891  048F  2C99               	goto	i1l1458
  3892  0490                     u173_20:
  3893  0490                     i1l1454:
  3894  0490  3000               	movlw	0
  3895  0491  00D7               	movwf	?___fladd+3
  3896  0492  3000               	movlw	0
  3897  0493  00D6               	movwf	?___fladd+2
  3898  0494  3000               	movlw	0
  3899  0495  00D5               	movwf	?___fladd+1
  3900  0496  3000               	movlw	0
  3901  0497  00D4               	movwf	?___fladd
  3902  0498  2E04               	goto	i1l474
  3903  0499                     i1l1458:
  3904  0499  0858               	movf	___fladd@a,w
  3905  049A  07D4               	addwf	___fladd@b,f
  3906  049B  0859               	movf	___fladd@a+1,w
  3907  049C  1103               	clrz
  3908  049D  1803               	skipnc
  3909  049E  3E01               	addlw	1
  3910  049F  1903               	skipnz
  3911  04A0  2CA2               	goto	u174_21
  3912  04A1  07D5               	addwf	___fladd@b+1,f
  3913  04A2                     u174_21:
  3914  04A2  085A               	movf	___fladd@a+2,w
  3915  04A3  1103               	clrz
  3916  04A4  1803               	skipnc
  3917  04A5  3E01               	addlw	1
  3918  04A6  1903               	skipnz
  3919  04A7  2CA9               	goto	u174_22
  3920  04A8  07D6               	addwf	___fladd@b+2,f
  3921  04A9                     u174_22:
  3922  04A9  085B               	movf	___fladd@a+3,w
  3923  04AA  1103               	clrz
  3924  04AB  1803               	skipnc
  3925  04AC  3E01               	addlw	1
  3926  04AD  1903               	skipnz
  3927  04AE  2CB0               	goto	u174_23
  3928  04AF  07D7               	addwf	___fladd@b+3,f
  3929  04B0                     u174_23:
  3930  04B0                     i1l1460:
  3931  04B0  1C57               	btfss	___fladd@b+3,0
  3932  04B1  2CB3               	goto	u175_21
  3933  04B2  2CB4               	goto	u175_20
  3934  04B3                     u175_21:
  3935  04B3  2D8A               	goto	i1l1510
  3936  04B4                     u175_20:
  3937  04B4                     i1l1462:
  3938  04B4  1C67               	btfss	___fladd@grs,0
  3939  04B5  2CB7               	goto	u176_21
  3940  04B6  2CB8               	goto	u176_20
  3941  04B7                     u176_21:
  3942  04B7  2CC1               	goto	i1l1466
  3943  04B8                     u176_20:
  3944  04B8                     i1l1464:
  3945  04B8  0867               	movf	___fladd@grs,w
  3946  04B9  00DC               	movwf	??___fladd
  3947  04BA  1003               	clrc
  3948  04BB  0C5C               	rrf	??___fladd,w
  3949  04BC  3801               	iorlw	1
  3950  04BD  00DD               	movwf	??___fladd+1
  3951  04BE  085D               	movf	??___fladd+1,w
  3952  04BF  00E7               	movwf	___fladd@grs
  3953  04C0  2CC3               	goto	i1l1468
  3954  04C1                     i1l1466:
  3955  04C1  1003               	clrc
  3956  04C2  0CE7               	rrf	___fladd@grs,f
  3957  04C3                     i1l1468:
  3958  04C3  1C54               	btfss	___fladd@b,0
  3959  04C4  2CC6               	goto	u177_21
  3960  04C5  2CC7               	goto	u177_20
  3961  04C6                     u177_21:
  3962  04C6  2CC8               	goto	i1l1472
  3963  04C7                     u177_20:
  3964  04C7                     i1l1470:
  3965  04C7  17E7               	bsf	___fladd@grs,7
  3966  04C8                     i1l1472:
  3967  04C8  3001               	movlw	1
  3968  04C9  00DC               	movwf	??___fladd
  3969  04CA                     u178_25:
  3970  04CA  0D57               	rlf	___fladd@b+3,w
  3971  04CB  0CD7               	rrf	___fladd@b+3,f
  3972  04CC  0CD6               	rrf	___fladd@b+2,f
  3973  04CD  0CD5               	rrf	___fladd@b+1,f
  3974  04CE  0CD4               	rrf	___fladd@b,f
  3975  04CF  0BDC               	decfsz	??___fladd& (0+127),f
  3976  04D0  2CCA               	goto	u178_25
  3977  04D1                     i1l1474:
  3978  04D1  3001               	movlw	1
  3979  04D2  00DC               	movwf	??___fladd
  3980  04D3  085C               	movf	??___fladd,w
  3981  04D4  07E6               	addwf	___fladd@bexp,f
  3982  04D5  2D8A               	goto	i1l1510
  3983  04D6                     i1l1476:
  3984  04D6  0857               	movf	___fladd@b+3,w
  3985  04D7  3A80               	xorlw	128
  3986  04D8  00FF               	movwf	btemp+1
  3987  04D9  085B               	movf	___fladd@a+3,w
  3988  04DA  3A80               	xorlw	128
  3989  04DB  027F               	subwf	btemp+1,w
  3990  04DC  1D03               	skipz
  3991  04DD  2CE8               	goto	u179_23
  3992  04DE  085A               	movf	___fladd@a+2,w
  3993  04DF  0256               	subwf	___fladd@b+2,w
  3994  04E0  1D03               	skipz
  3995  04E1  2CE8               	goto	u179_23
  3996  04E2  0859               	movf	___fladd@a+1,w
  3997  04E3  0255               	subwf	___fladd@b+1,w
  3998  04E4  1D03               	skipz
  3999  04E5  2CE8               	goto	u179_23
  4000  04E6  0858               	movf	___fladd@a,w
  4001  04E7  0254               	subwf	___fladd@b,w
  4002  04E8                     u179_23:
  4003  04E8  1803               	skipnc
  4004  04E9  2CEB               	goto	u179_21
  4005  04EA  2CEC               	goto	u179_20
  4006  04EB                     u179_21:
  4007  04EB  2D44               	goto	i1l1486
  4008  04EC                     u179_20:
  4009  04EC                     i1l1478:
  4010  04EC  30FF               	movlw	255
  4011  04ED  00DC               	movwf	??___fladd
  4012  04EE  30FF               	movlw	255
  4013  04EF  00DD               	movwf	??___fladd+1
  4014  04F0  30FF               	movlw	255
  4015  04F1  00DE               	movwf	??___fladd+2
  4016  04F2  30FF               	movlw	255
  4017  04F3  00DF               	movwf	??___fladd+3
  4018  04F4  0858               	movf	___fladd@a,w
  4019  04F5  00E0               	movwf	??___fladd+4
  4020  04F6  0859               	movf	___fladd@a+1,w
  4021  04F7  00E1               	movwf	??___fladd+5
  4022  04F8  085A               	movf	___fladd@a+2,w
  4023  04F9  00E2               	movwf	??___fladd+6
  4024  04FA  085B               	movf	___fladd@a+3,w
  4025  04FB  00E3               	movwf	??___fladd+7
  4026  04FC  0854               	movf	___fladd@b,w
  4027  04FD  02E0               	subwf	??___fladd+4,f
  4028  04FE  0855               	movf	___fladd@b+1,w
  4029  04FF  1C03               	skipc
  4030  0500  0F55               	incfsz	___fladd@b+1,w
  4031  0501  2D03               	goto	u180_21
  4032  0502  2D04               	goto	u180_22
  4033  0503                     u180_21:
  4034  0503  02E1               	subwf	??___fladd+5,f
  4035  0504                     u180_22:
  4036  0504  0856               	movf	___fladd@b+2,w
  4037  0505  1C03               	skipc
  4038  0506  0F56               	incfsz	___fladd@b+2,w
  4039  0507  2D09               	goto	u180_23
  4040  0508  2D0A               	goto	u180_24
  4041  0509                     u180_23:
  4042  0509  02E2               	subwf	??___fladd+6,f
  4043  050A                     u180_24:
  4044  050A  0857               	movf	___fladd@b+3,w
  4045  050B  1C03               	skipc
  4046  050C  0F57               	incfsz	___fladd@b+3,w
  4047  050D  2D0F               	goto	u180_25
  4048  050E  2D10               	goto	u180_26
  4049  050F                     u180_25:
  4050  050F  02E3               	subwf	??___fladd+7,f
  4051  0510                     u180_26:
  4052  0510  0860               	movf	??___fladd+4,w
  4053  0511  07DC               	addwf	??___fladd,f
  4054  0512  0861               	movf	??___fladd+5,w
  4055  0513  1803               	skipnc
  4056  0514  0F61               	incfsz	??___fladd+5,w
  4057  0515  2D17               	goto	u181_20
  4058  0516  2D18               	goto	u181_21
  4059  0517                     u181_20:
  4060  0517  07DD               	addwf	??___fladd+1,f
  4061  0518                     u181_21:
  4062  0518  0862               	movf	??___fladd+6,w
  4063  0519  1803               	skipnc
  4064  051A  0F62               	incfsz	??___fladd+6,w
  4065  051B  2D1D               	goto	u181_22
  4066  051C  2D1E               	goto	u181_23
  4067  051D                     u181_22:
  4068  051D  07DE               	addwf	??___fladd+2,f
  4069  051E                     u181_23:
  4070  051E  0863               	movf	??___fladd+7,w
  4071  051F  1803               	skipnc
  4072  0520  0A63               	incf	??___fladd+7,w
  4073  0521  07DF               	addwf	??___fladd+3,f
  4074  0522  085F               	movf	??___fladd+3,w
  4075  0523  00D7               	movwf	___fladd@b+3
  4076  0524  085E               	movf	??___fladd+2,w
  4077  0525  00D6               	movwf	___fladd@b+2
  4078  0526  085D               	movf	??___fladd+1,w
  4079  0527  00D5               	movwf	___fladd@b+1
  4080  0528  085C               	movf	??___fladd,w
  4081  0529  00D4               	movwf	___fladd@b
  4082  052A                     i1l1480:
  4083  052A  3080               	movlw	128
  4084  052B  00DC               	movwf	??___fladd
  4085  052C  085C               	movf	??___fladd,w
  4086  052D  06E4               	xorwf	___fladd@signs,f
  4087  052E  09E7               	comf	___fladd@grs,f
  4088  052F  0AE7               	incf	___fladd@grs,f
  4089  0530                     i1l1482:
  4090  0530  0867               	movf	___fladd@grs,w
  4091  0531  1D03               	btfss	3,2
  4092  0532  2D34               	goto	u182_21
  4093  0533  2D35               	goto	u182_20
  4094  0534                     u182_21:
  4095  0534  2D52               	goto	i1l482
  4096  0535                     u182_20:
  4097  0535                     i1l1484:
  4098  0535  3001               	movlw	1
  4099  0536  07D4               	addwf	___fladd@b,f
  4100  0537  3000               	movlw	0
  4101  0538  1803               	skipnc
  4102  0539  3001               	movlw	1
  4103  053A  07D5               	addwf	___fladd@b+1,f
  4104  053B  3000               	movlw	0
  4105  053C  1803               	skipnc
  4106  053D  3001               	movlw	1
  4107  053E  07D6               	addwf	___fladd@b+2,f
  4108  053F  3000               	movlw	0
  4109  0540  1803               	skipnc
  4110  0541  3001               	movlw	1
  4111  0542  07D7               	addwf	___fladd@b+3,f
  4112  0543  2D52               	goto	i1l482
  4113  0544                     i1l1486:
  4114  0544  0858               	movf	___fladd@a,w
  4115  0545  02D4               	subwf	___fladd@b,f
  4116  0546  0859               	movf	___fladd@a+1,w
  4117  0547  1C03               	skipc
  4118  0548  0F59               	incfsz	___fladd@a+1,w
  4119  0549  02D5               	subwf	___fladd@b+1,f
  4120  054A  085A               	movf	___fladd@a+2,w
  4121  054B  1C03               	skipc
  4122  054C  0F5A               	incfsz	___fladd@a+2,w
  4123  054D  02D6               	subwf	___fladd@b+2,f
  4124  054E  085B               	movf	___fladd@a+3,w
  4125  054F  1C03               	skipc
  4126  0550  0F5B               	incfsz	___fladd@a+3,w
  4127  0551  02D7               	subwf	___fladd@b+3,f
  4128  0552                     i1l482:
  4129  0552  0857               	movf	___fladd@b+3,w
  4130  0553  0456               	iorwf	___fladd@b+2,w
  4131  0554  0455               	iorwf	___fladd@b+1,w
  4132  0555  0454               	iorwf	___fladd@b,w
  4133  0556  1D03               	skipz
  4134  0557  2D59               	goto	u183_21
  4135  0558  2D5A               	goto	u183_20
  4136  0559                     u183_21:
  4137  0559  2D86               	goto	i1l1508
  4138  055A                     u183_20:
  4139  055A                     i1l1488:
  4140  055A  0867               	movf	___fladd@grs,w
  4141  055B  1D03               	btfss	3,2
  4142  055C  2D5E               	goto	u184_21
  4143  055D  2D5F               	goto	u184_20
  4144  055E                     u184_21:
  4145  055E  2D86               	goto	i1l1508
  4146  055F                     u184_20:
  4147  055F                     i1l1490:
  4148  055F  3000               	movlw	0
  4149  0560  00D7               	movwf	?___fladd+3
  4150  0561  3000               	movlw	0
  4151  0562  00D6               	movwf	?___fladd+2
  4152  0563  3000               	movlw	0
  4153  0564  00D5               	movwf	?___fladd+1
  4154  0565  3000               	movlw	0
  4155  0566  00D4               	movwf	?___fladd
  4156  0567  2E04               	goto	i1l474
  4157  0568                     i1l1494:
  4158  0568  3001               	movlw	1
  4159  0569  00DC               	movwf	??___fladd
  4160  056A                     u185_25:
  4161  056A  1003               	clrc
  4162  056B  0DD4               	rlf	___fladd@b,f
  4163  056C  0DD5               	rlf	___fladd@b+1,f
  4164  056D  0DD6               	rlf	___fladd@b+2,f
  4165  056E  0DD7               	rlf	___fladd@b+3,f
  4166  056F  0BDC               	decfsz	??___fladd,f
  4167  0570  2D6A               	goto	u185_25
  4168  0571                     i1l1496:
  4169  0571  1FE7               	btfss	___fladd@grs,7
  4170  0572  2D74               	goto	u186_21
  4171  0573  2D75               	goto	u186_20
  4172  0574                     u186_21:
  4173  0574  2D76               	goto	i1l486
  4174  0575                     u186_20:
  4175  0575                     i1l1498:
  4176  0575  1454               	bsf	___fladd@b,0
  4177  0576                     i1l486:
  4178  0576  1C67               	btfss	___fladd@grs,0
  4179  0577  2D79               	goto	u187_21
  4180  0578  2D7A               	goto	u187_20
  4181  0579                     u187_21:
  4182  0579  2D7D               	goto	i1l1502
  4183  057A                     u187_20:
  4184  057A                     i1l1500:
  4185  057A  1403               	setc
  4186  057B  0DE7               	rlf	___fladd@grs,f
  4187  057C  2D7F               	goto	i1l1504
  4188  057D                     i1l1502:
  4189  057D  1003               	clrc
  4190  057E  0DE7               	rlf	___fladd@grs,f
  4191  057F                     i1l1504:
  4192  057F  0866               	movf	___fladd@bexp,w
  4193  0580  1903               	btfsc	3,2
  4194  0581  2D83               	goto	u188_21
  4195  0582  2D84               	goto	u188_20
  4196  0583                     u188_21:
  4197  0583  2D86               	goto	i1l1508
  4198  0584                     u188_20:
  4199  0584                     i1l1506:
  4200  0584  3001               	movlw	1
  4201  0585  02E6               	subwf	___fladd@bexp,f
  4202  0586                     i1l1508:
  4203  0586  1FD6               	btfss	___fladd@b+2,7
  4204  0587  2D89               	goto	u189_21
  4205  0588  2D8A               	goto	u189_20
  4206  0589                     u189_21:
  4207  0589  2D68               	goto	i1l1494
  4208  058A                     u189_20:
  4209  058A                     i1l1510:
  4210  058A  01E5               	clrf	___fladd@aexp
  4211  058B                     i1l1512:
  4212  058B  1FE7               	btfss	___fladd@grs,7
  4213  058C  2D8E               	goto	u190_21
  4214  058D  2D8F               	goto	u190_20
  4215  058E                     u190_21:
  4216  058E  2D9D               	goto	i1l1520
  4217  058F                     u190_20:
  4218  058F                     i1l1514:
  4219  058F  0867               	movf	___fladd@grs,w
  4220  0590  397F               	andlw	127
  4221  0591  1903               	btfsc	3,2
  4222  0592  2D94               	goto	u191_21
  4223  0593  2D95               	goto	u191_20
  4224  0594                     u191_21:
  4225  0594  2D98               	goto	i1l492
  4226  0595                     u191_20:
  4227  0595                     i1l1516:
  4228  0595  01E5               	clrf	___fladd@aexp
  4229  0596  0AE5               	incf	___fladd@aexp,f
  4230  0597  2D9D               	goto	i1l1520
  4231  0598                     i1l492:
  4232  0598  1C54               	btfss	___fladd@b,0
  4233  0599  2D9B               	goto	u192_21
  4234  059A  2D9C               	goto	u192_20
  4235  059B                     u192_21:
  4236  059B  2D9D               	goto	i1l1520
  4237  059C                     u192_20:
  4238  059C  2D95               	goto	i1l1516
  4239  059D                     i1l1520:
  4240  059D  0865               	movf	___fladd@aexp,w
  4241  059E  1903               	btfsc	3,2
  4242  059F  2DA1               	goto	u193_21
  4243  05A0  2DA2               	goto	u193_20
  4244  05A1                     u193_21:
  4245  05A1  2DD6               	goto	i1l495
  4246  05A2                     u193_20:
  4247  05A2                     i1l1522:
  4248  05A2  3001               	movlw	1
  4249  05A3  07D4               	addwf	___fladd@b,f
  4250  05A4  3000               	movlw	0
  4251  05A5  1803               	skipnc
  4252  05A6  3001               	movlw	1
  4253  05A7  07D5               	addwf	___fladd@b+1,f
  4254  05A8  3000               	movlw	0
  4255  05A9  1803               	skipnc
  4256  05AA  3001               	movlw	1
  4257  05AB  07D6               	addwf	___fladd@b+2,f
  4258  05AC  3000               	movlw	0
  4259  05AD  1803               	skipnc
  4260  05AE  3001               	movlw	1
  4261  05AF  07D7               	addwf	___fladd@b+3,f
  4262  05B0                     i1l1524:
  4263  05B0  1C57               	btfss	___fladd@b+3,0
  4264  05B1  2DB3               	goto	u194_21
  4265  05B2  2DB4               	goto	u194_20
  4266  05B3                     u194_21:
  4267  05B3  2DD6               	goto	i1l495
  4268  05B4                     u194_20:
  4269  05B4                     i1l1526:
  4270  05B4  0854               	movf	___fladd@b,w
  4271  05B5  00DC               	movwf	??___fladd
  4272  05B6  0855               	movf	___fladd@b+1,w
  4273  05B7  00DD               	movwf	??___fladd+1
  4274  05B8  0856               	movf	___fladd@b+2,w
  4275  05B9  00DE               	movwf	??___fladd+2
  4276  05BA  0857               	movf	___fladd@b+3,w
  4277  05BB  00DF               	movwf	??___fladd+3
  4278  05BC  3001               	movlw	1
  4279  05BD  00E0               	movwf	??___fladd+4
  4280  05BE                     u195_25:
  4281  05BE  0D5F               	rlf	??___fladd+3,w
  4282  05BF  0CDF               	rrf	??___fladd+3,f
  4283  05C0  0CDE               	rrf	??___fladd+2,f
  4284  05C1  0CDD               	rrf	??___fladd+1,f
  4285  05C2  0CDC               	rrf	??___fladd,f
  4286  05C3                     u195_20:
  4287  05C3  0BE0               	decfsz	??___fladd+4,f
  4288  05C4  2DBE               	goto	u195_25
  4289  05C5  085F               	movf	??___fladd+3,w
  4290  05C6  00D7               	movwf	___fladd@b+3
  4291  05C7  085E               	movf	??___fladd+2,w
  4292  05C8  00D6               	movwf	___fladd@b+2
  4293  05C9  085D               	movf	??___fladd+1,w
  4294  05CA  00D5               	movwf	___fladd@b+1
  4295  05CB  085C               	movf	??___fladd,w
  4296  05CC  00D4               	movwf	___fladd@b
  4297  05CD  0A66               	incf	___fladd@bexp,w
  4298  05CE  1903               	btfsc	3,2
  4299  05CF  2DD1               	goto	u196_21
  4300  05D0  2DD2               	goto	u196_20
  4301  05D1                     u196_21:
  4302  05D1  2DD6               	goto	i1l495
  4303  05D2                     u196_20:
  4304  05D2                     i1l1528:
  4305  05D2  3001               	movlw	1
  4306  05D3  00DC               	movwf	??___fladd
  4307  05D4  085C               	movf	??___fladd,w
  4308  05D5  07E6               	addwf	___fladd@bexp,f
  4309  05D6                     i1l495:
  4310  05D6  0A66               	incf	___fladd@bexp,w
  4311  05D7  1903               	btfsc	3,2
  4312  05D8  2DDA               	goto	u197_21
  4313  05D9  2DDB               	goto	u197_20
  4314  05DA                     u197_21:
  4315  05DA  2DE0               	goto	i1l1532
  4316  05DB                     u197_20:
  4317  05DB                     i1l1530:
  4318  05DB  0866               	movf	___fladd@bexp,w
  4319  05DC  1D03               	btfss	3,2
  4320  05DD  2DDF               	goto	u198_21
  4321  05DE  2DE0               	goto	u198_20
  4322  05DF                     u198_21:
  4323  05DF  2DEE               	goto	i1l1538
  4324  05E0                     u198_20:
  4325  05E0                     i1l1532:
  4326  05E0  3000               	movlw	0
  4327  05E1  00D7               	movwf	___fladd@b+3
  4328  05E2  3000               	movlw	0
  4329  05E3  00D6               	movwf	___fladd@b+2
  4330  05E4  3000               	movlw	0
  4331  05E5  00D5               	movwf	___fladd@b+1
  4332  05E6  3000               	movlw	0
  4333  05E7  00D4               	movwf	___fladd@b
  4334  05E8                     i1l1534:
  4335  05E8  0866               	movf	___fladd@bexp,w
  4336  05E9  1D03               	btfss	3,2
  4337  05EA  2DEC               	goto	u199_21
  4338  05EB  2DED               	goto	u199_20
  4339  05EC                     u199_21:
  4340  05EC  2DEE               	goto	i1l1538
  4341  05ED                     u199_20:
  4342  05ED                     i1l1536:
  4343  05ED  01E4               	clrf	___fladd@signs
  4344  05EE                     i1l1538:
  4345  05EE  1C66               	btfss	___fladd@bexp,0
  4346  05EF  2DF1               	goto	u200_21
  4347  05F0  2DF2               	goto	u200_20
  4348  05F1                     u200_21:
  4349  05F1  2DF4               	goto	i1l1542
  4350  05F2                     u200_20:
  4351  05F2                     i1l1540:
  4352  05F2  17D6               	bsf	___fladd@b+2,7
  4353  05F3  2DF8               	goto	i1l503
  4354  05F4                     i1l1542:
  4355  05F4  307F               	movlw	127
  4356  05F5  00DC               	movwf	??___fladd
  4357  05F6  085C               	movf	??___fladd,w
  4358  05F7  05D6               	andwf	___fladd@b+2,f
  4359  05F8                     i1l503:
  4360  05F8  0866               	movf	___fladd@bexp,w
  4361  05F9  00DC               	movwf	??___fladd
  4362  05FA  1003               	clrc
  4363  05FB  0C5C               	rrf	??___fladd,w
  4364  05FC  00DD               	movwf	??___fladd+1
  4365  05FD  085D               	movf	??___fladd+1,w
  4366  05FE  00D7               	movwf	___fladd@b+3
  4367  05FF                     i1l1544:
  4368  05FF  1FE4               	btfss	___fladd@signs,7
  4369  0600  2E02               	goto	u201_21
  4370  0601  2E03               	goto	u201_20
  4371  0602                     u201_21:
  4372  0602  2E04               	goto	i1l504
  4373  0603                     u201_20:
  4374  0603                     i1l1546:
  4375  0603  17D7               	bsf	___fladd@b+3,7
  4376  0604                     i1l504:
  4377  0604                     i1l474:
  4378  0604  0008               	return
  4379  0605                     __end_of___fladd:
  4380  007E                     btemp	set	126	;btemp
  4381  007E                     wtemp0	set	126
  4382                           
  4383                           	psect	idloc
  4384                           
  4385                           ;Config register IDLOC0 @ 0x2000
  4386                           ;	unspecified, using default values
  4387  2000                     	org	8192
  4388  2000  3FFF               	dw	16383
  4389                           
  4390                           ;Config register IDLOC1 @ 0x2001
  4391                           ;	unspecified, using default values
  4392  2001                     	org	8193
  4393  2001  3FFF               	dw	16383
  4394                           
  4395                           ;Config register IDLOC2 @ 0x2002
  4396                           ;	unspecified, using default values
  4397  2002                     	org	8194
  4398  2002  3FFF               	dw	16383
  4399                           
  4400                           ;Config register IDLOC3 @ 0x2003
  4401                           ;	unspecified, using default values
  4402  2003                     	org	8195
  4403  2003  3FFF               	dw	16383
  4404                           
  4405                           	psect	config
  4406                           
  4407                           ;Config register CONFIG1 @ 0x2007
  4408                           ;	Oscillator Selection bits
  4409                           ;	FOSC = INTRC_NOCLKOUT, INTOSCIO oscillator: I/O function on RA6/OSC2/CLKOUT pin, I/O f
      +                          unction on RA7/OSC1/CLKIN
  4410                           ;	Watchdog Timer Enable bit
  4411                           ;	WDTE = OFF, WDT disabled and can be enabled by SWDTEN bit of the WDTCON register
  4412                           ;	Power-up Timer Enable bit
  4413                           ;	PWRTE = OFF, PWRT disabled
  4414                           ;	RE3/MCLR pin function select bit
  4415                           ;	MCLRE = OFF, RE3/MCLR pin function is digital input, MCLR internally tied to VDD
  4416                           ;	Code Protection bit
  4417                           ;	CP = OFF, Program memory code protection is disabled
  4418                           ;	Data Code Protection bit
  4419                           ;	CPD = OFF, Data memory code protection is disabled
  4420                           ;	Brown Out Reset Selection bits
  4421                           ;	BOREN = OFF, BOR disabled
  4422                           ;	Internal External Switchover bit
  4423                           ;	IESO = OFF, Internal/External Switchover mode is disabled
  4424                           ;	Fail-Safe Clock Monitor Enabled bit
  4425                           ;	FCMEN = OFF, Fail-Safe Clock Monitor is disabled
  4426                           ;	Low Voltage Programming Enable bit
  4427                           ;	LVP = OFF, RB3 pin has digital I/O, HV on MCLR must be used for programming
  4428                           ;	In-Circuit Debugger Mode bit
  4429                           ;	DEBUG = 0x1, unprogrammed default
  4430  2007                     	org	8199
  4431  2007  20D4               	dw	8404
  4432                           
  4433                           ;Config register CONFIG2 @ 0x2008
  4434                           ;	Brown-out Reset Selection bit
  4435                           ;	BOR4V = BOR40V, Brown-out Reset set to 4.0V
  4436                           ;	Flash Program Memory Self Write Enable bits
  4437                           ;	WRT = OFF, Write protection off
  4438  2008                     	org	8200
  4439  2008  3FFF               	dw	16383

Data Sizes:
    Strings     0
    Constant    0
    Data        0
    BSS         3
    Persistent  0
    Stack       0

Auto Spaces:
    Space          Size  Autos    Used
    COMMON           14     14      14
    BANK0            80     79      79
    BANK1            80     16      19
    BANK3            96      0       0
    BANK2            96      0       0

Pointer List with Targets:

    None.

Critical Paths under _main in COMMON

    None.

Critical Paths under _isr in COMMON

    _map->___xxtofl
    ___fltol->___xxtofl
    ___flmul->___xxtofl
    ___fldiv->___xxtofl
    ___fladd->___xxtofl

Critical Paths under _main in BANK0

    None.

Critical Paths under _isr in BANK0

    _isr->_map
    _map->___fltol
    ___fltol->___fladd
    ___flmul->___fldiv
    ___fladd->___flmul

Critical Paths under _main in BANK1

    None.

Critical Paths under _isr in BANK1

    _isr->_map
    _map->___fltol

Critical Paths under _main in BANK3

    None.

Critical Paths under _isr in BANK3

    None.

Critical Paths under _main in BANK2

    None.

Critical Paths under _isr in BANK2

    None.

Call Graph Tables:

 ---------------------------------------------------------------------------------
 (Depth) Function   	        Calls       Base Space   Used Autos Params    Refs
 ---------------------------------------------------------------------------------
 (0) _main                                                 0     0      0       0
                              _setup
 ---------------------------------------------------------------------------------
 (1) _setup                                                0     0      0       0
 ---------------------------------------------------------------------------------
 Estimated maximum stack depth 1
 ---------------------------------------------------------------------------------
 (Depth) Function   	        Calls       Base Space   Used Autos Params    Refs
 ---------------------------------------------------------------------------------
 (2) _isr                                                  5     5      0    7341
                                             11 BANK1      5     5      0
                                _map
 ---------------------------------------------------------------------------------
 (3) _map                                                  7     1      6    7341
                                             78 BANK0      1     1      0
                                              5 BANK1      6     0      6
                            ___fladd
                            ___fldiv
                            ___flmul
                            ___fltol
                           ___xxtofl
 ---------------------------------------------------------------------------------
 (4) ___xxtofl                                            14    10      4     626
                                              0 COMMON    14    10      4
 ---------------------------------------------------------------------------------
 (4) ___fltol                                             11     7      4     305
                                             72 BANK0      6     2      4
                                              0 BANK1      5     5      0
                            ___fladd (ARG)
                            ___fldiv (ARG)
                            ___flmul (ARG)
                           ___xxtofl (ARG)
 ---------------------------------------------------------------------------------
 (4) ___flmul                                             26    18      8    2417
                                             26 BANK0     26    18      8
                          __Umul8_16
                            ___fldiv (ARG)
                           ___xxtofl (ARG)
 ---------------------------------------------------------------------------------
 (5) __Umul8_16                                            9     7      2     799
                                              0 COMMON     9     7      2
 ---------------------------------------------------------------------------------
 (4) ___fldiv                                             26    18      8    1273
                                              0 BANK0     26    18      8
                           ___xxtofl (ARG)
 ---------------------------------------------------------------------------------
 (4) ___fladd                                             20    12      8    2262
                                             52 BANK0     20    12      8
                            ___fldiv (ARG)
                            ___flmul (ARG)
                           ___xxtofl (ARG)
 ---------------------------------------------------------------------------------
 Estimated maximum stack depth 5
 ---------------------------------------------------------------------------------

 Call Graph Graphs:

 _main (ROOT)
   _setup

 _isr (ROOT)
   _map
     ___fladd
       ___fldiv (ARG)
         ___xxtofl (ARG)
       ___flmul (ARG)
         __Umul8_16
         ___fldiv (ARG)
         ___xxtofl (ARG)
       ___xxtofl (ARG)
     ___fldiv
     ___flmul
     ___fltol
       ___fladd (ARG)
       ___fldiv (ARG)
       ___flmul (ARG)
       ___xxtofl (ARG)
     ___xxtofl

 Address spaces:
Name               Size   Autos  Total    Cost      Usage
BITCOMMON            E      0       0       0        0.0%
EEDATA             100      0       0       0        0.0%
NULL                 0      0       0       0        0.0%
CODE                 0      0       0       0        0.0%
COMMON               E      E       E       1      100.0%
BITSFR0              0      0       0       1        0.0%
SFR0                 0      0       0       1        0.0%
BITSFR1              0      0       0       2        0.0%
SFR1                 0      0       0       2        0.0%
STACK                0      0       0       2        0.0%
ABS                  0      0      70       3        0.0%
BITBANK0            50      0       0       4        0.0%
BITSFR3              0      0       0       4        0.0%
SFR3                 0      0       0       4        0.0%
BANK0               50     4F      4F       5       98.8%
BITSFR2              0      0       0       5        0.0%
SFR2                 0      0       0       5        0.0%
BITBANK1            50      0       0       6        0.0%
BANK1               50     10      13       7       23.8%
BITBANK3            60      0       0       8        0.0%
BANK3               60      0       0       9        0.0%
BITBANK2            60      0       0      10        0.0%
BANK2               60      0       0      11        0.0%
DATA                 0      0      70      12        0.0%


Microchip Technology PIC Macro Assembler V2.36 build 20220127204148 
Symbol Table                                                                                   Sat May 14 05:42:18 2022

           ___fldiv@aexp 0039             ___fldiv@bexp 0038             ___fldiv@sign 0031  
            _SSPSTATbits 0094                       l41 0D80                       l42 0D8C  
                     l39 0D7C                       l76 07E7                       l77 07E7  
    __Umul8_16@word_mpld 0076                      _PR2 0092                      _PWM 00B2  
                    _map 0E94                      _isr 0D8D             ___flmul@aexp 004C  
           ___flmul@bexp 004D             ___flmul@sign 0047             ___flmul@temp 0052  
           ___flmul@prod 004E             ___fltol@exp1 006D                     l1900 0D6C  
                   l1910 0D79                     l1902 0D6E                     l1912 0D7B  
                   l1904 0D72                     l1906 0D74                     l1908 0D78  
                   l1932 07E2                     l1880 0D50                     l1890 0D61  
                   l1882 0D53                     l1874 0D41                     l1892 0D62  
                   l1884 0D59                     l1876 0D45                     l1894 0D65  
                   l1886 0D5A                     l1878 0D49                     ?_map 00A5  
                   l1896 0D66                     l1888 0D60                     l1898 0D67  
                   ?_isr 0070                     _CCP1 00B0                     u2820 0D80  
                   u2821 0D7F                     i1l71 0DED                     i1l82 0F45  
                   i1l68 0D9A                     _main 07E2                     btemp 007E  
                   start 0010          ___fldiv@new_exp 0032                    ??_map 007E  
                  ??_isr 00AB            ___fltol@sign1 006C          __end_of___fladd 0605  
                  ?_main 0070          __end_of___fldiv 07E2          __end_of___flmul 037D  
        __end_of___fltol 0E94                    _ANSEL 0188                    i1l503 05F8  
                  i1l504 0604                    i1l361 0E7E                    i1l601 0F68  
                  i1l354 0E93                    i1l603 0FFF                    i1l364 0E93  
                  i1l461 03E0                    i1l541 07D5                    i1l533 0753  
                  i1l517 0661                    i1l614 0FC9                    i1l519 07E1  
                  i1l615 0FD5                    i1l607 0FAD                    i1l465 0487  
                  i1l482 0552                    i1l474 0604                    i1l467 045E  
                  i1l539 07C5                    i1l563 02E8                    i1l492 0598  
                  i1l557 037C                    i1l486 0576                    i1l495 05D6  
                  i1l576 0D2E                    i1l569 0370                    i1l578 0D40  
                  _PORTA 0005                    _PORTC 0007                    _TRISA 0085  
                  _TRISC 0087                    map@x0 006E                    map@x1 00A5  
                  map@y0 00A7                    map@x2 00A6                    map@y1 00A9  
                  _setup 0D41                    pclath 000A                    status 0003  
                  wtemp0 007E          __initialization 0013             __end_of_main 07EB  
                 ??_main 00B0                   _CCPR1L 0015                   ?_setup 0070  
                 _ANSELH 0189                   i1l1310 0D28                   i1l1400 03EA  
                 i1l1312 0D37                   i1l1304 0D1B                   i1l1320 0E09  
                 i1l1410 03FE                   i1l1402 03EE                   i1l1314 0D3C  
                 i1l1306 0D1D                   i1l1330 0E40                   i1l1500 057A  
                 i1l1420 0412                   i1l1412 0402                   i1l1404 03F2  
                 i1l1308 0D24                   i1l1340 0E4E                   i1l1332 0E42  
                 i1l1324 0E12                   i1l1502 057D                   i1l1510 058A  
                 i1l1430 0426                   i1l1422 0416                   i1l1414 0406  
                 i1l1406 03F6                   i1l1350 0E83                   i1l1334 0E46  
                 i1l1342 0E64                   i1l1326 0E37                   i1l1318 0DF8  
                 u200_20 05F2                   i1l1520 059D                   i1l1512 058B  
                 i1l1504 057F                   i1l1440 046B                   i1l1424 041A  
                 i1l1416 040A                   i1l1408 03FA                   i1l1432 042A  
                 i1l1360 038E                   i1l1352 0E88                   i1l1328 0E38  
                 u200_21 05F1                   i1l1530 05DB                   i1l1522 05A2  
                 i1l1514 058F                   i1l1506 0584                   i1l1442 046D  
                 i1l1450 047F                   i1l1434 042B                   i1l1426 041E  
                 i1l1418 040E                   i1l1370 03A2                   i1l1362 038F  
                 i1l1354 037D                   i1l1610 06BA                   i1l1602 0690  
                 i1l1540 05F2                   i1l1532 05E0                   i1l1524 05B0  
                 i1l1516 0595                   i1l1508 0586                   i1l1460 04B0  
                 i1l1452 048B                   i1l1444 0471                   i1l1436 0442  
                 i1l1428 0422                   i1l1380 03B8                   i1l1364 0394  
                 i1l1372 03A4                   i1l1356 0384                   i1l1620 06D8  
                 i1l1612 06BC                   i1l1604 06A2                   i1l1700 0033  
                 i1l1348 0E6B                   i1l1542 05F4                   i1l1534 05E8  
                 i1l1526 05B4                   i1l1470 04C7                   i1l1462 04B4  
                 i1l1454 0490                   i1l1446 0472                   i1l1438 0462  
                 i1l1390 03CD                   i1l1382 03BE                   i1l1374 03AC  
                 i1l1366 0399                   i1l1358 038A                   i1l1614 06C1  
                 i1l1622 06E1                   i1l1630 0706                   i1l1606 06AA  
                 i1l1550 060C                   i1l1710 004F                   i1l1702 0038  
                 u201_20 0603                   i1l1544 05FF                   i1l1536 05ED  
                 i1l1528 05D2                   i1l1480 052A                   i1l1472 04C8  
                 i1l1464 04B8                   i1l1448 047B                   i1l1392 03D5  
                 i1l1384 03C2                   i1l1376 03B1                   i1l1368 03A1  
                 i1l1640 0723                   i1l1632 070C                   i1l1624 06F3  
                 i1l1616 06D3                   i1l1608 06B2                   i1l1560 0621  
                 i1l1552 0612                   i1l1800 02F2                   i1l1720 0064  
                 i1l1712 0055                   i1l1704 0040                   u201_21 0602  
                 i1l1546 0603                   i1l1538 05EE                   i1l1490 055F  
                 i1l1482 0530                   i1l1474 04D1                   i1l1466 04C1  
                 i1l1458 0499                   i1l1394 03D6                   i1l1386 03C3  
                 i1l1378 03B7                   i1l1650 0738                   i1l1642 0724  
                 i1l1634 0714                   i1l1626 06F4                   i1l1618 06D7  
                 i1l1570 0639                   i1l1562 0629                   i1l1554 0616  
                 i1l1810 0330                   i1l1802 0300                   i1l1730 0080  
                 i1l1722 006C                   i1l1714 0059                   i1l1706 0042  
                 i1l1484 0535                   i1l1468 04C3                   i1l1476 04D6  
                 i1l1388 03C8                   i1l1396 03D8                   i1l1660 075D  
                 i1l1652 073C                   i1l1644 072D                   i1l1636 0716  
                 i1l1628 0702                   i1l1580 064E                   i1l1572 063F  
                 i1l1564 062A                   i1l1556 0617                   i1l1548 0605  
                 i1l1820 0364                   i1l1812 033B                   i1l1804 0304  
                 i1l1740 00C3                   i1l1724 006E                   i1l1716 005A  
                 i1l1708 004A                   i1l1494 0568                   i1l1478 04EC  
                 i1l1486 0544                   i1l1398 03E6                   i1l1670 079B  
                 i1l1662 076B                   i1l1654 0750                   i1l1638 071F  
                 i1l1646 0733                   i1l1590 0675                   i1l1582 0656  
                 i1l1574 0643                   i1l1558 061C                   i1l1566 062C  
                 i1l1822 0368                   i1l1814 034A                   i1l1806 031D  
                 i1l1750 014C                   i1l1742 00DF                   i1l1734 0089  
                 i1l1726 0076                   i1l1718 005F                   i1l1830 0F47  
                 i1l1496 0571                   i1l1488 055A                   i1l1680 07CB  
                 i1l1672 07A9                   i1l1664 076F                   i1l1648 0737  
                 u210_20 06C1                   i1l1592 0679                   i1l1584 0657  
                 i1l1576 0644                   i1l1568 0634                   u202_20 0616  
                 i1l1824 0369                   i1l1816 0354                   i1l1808 0323  
                 i1l1760 01BF                   i1l1752 015C                   i1l1744 010B  
                 i1l1736 0099                   i1l1728 007B                   i1l1832 0F4C  
                 i1l1920 0D93                   u210_21 06C0                   u202_21 0615  
                 i1l1498 0575                   i1l1682 07CF                   i1l1674 07B8  
                 i1l1666 0788                   i1l1658 0758                   i1l1578 0649  
                 i1l1586 0659                   i1l1826 0374                   i1l1818 0356  
                 i1l1770 026C                   i1l1762 01DC                   i1l1754 0179  
                 i1l1746 0127                   i1l1738 00A6                   i1l1690 001C  
                 i1l1850 0F96                   i1l1842 0F79                   i1l1834 0F50  
                 i1l1914 0E97                   i1l1930 0DEC                   i1l1922 0DA0  
                 i1l1684 07D1                   i1l1676 07BC                   i1l1668 078E  
                 i1l1588 0669                   i1l1596 0682                   i1l1780 02B8  
                 i1l1772 0294                   i1l1764 0209                   i1l1756 0189  
                 i1l1748 0143                   i1l1692 0023                   i1l1860 0FCD  
                 i1l1852 0FA4                   i1l1844 0F7E                   i1l1836 0F60  
                 i1l1924 0DB2                   i1l1678 07C4                   i1l1598 0687  
                 i1l1790 02CD                   i1l1782 02B9                   i1l1774 029D  
                 i1l1766 0219                   i1l1758 01A6                   i1l1694 0029  
                 i1l1870 0FF7                   i1l1862 0FD7                   i1l1854 0FB4  
                 i1l1846 0F8B                   i1l1838 0F70                   i1l1926 0DCD  
                 i1l1918 0D8D                   u203_20 061C                   i1l1792 02D1  
                 i1l1784 02C2                   i1l1776 02AB                   i1l1768 0246  
                 i1l1696 002D                   i1l1864 0FED                   i1l1856 0FBF  
                 i1l1848 0F92                   i1l1928 0DDB                   u203_21 061B  
                 i1l1794 02E5                   i1l1778 02B4                   i1l1786 02C8  
                 i1l1698 002E                   i1l1866 0FF2                   i1l1858 0FC3  
                 i1l1788 02CC                   i1l1868 0FF6                   u211_25 06C3  
                 i1l1798 02ED                   u204_20 0621                   u204_21 0620  
                 u220_25 0726                   u212_25 06CC                   u221_20 0737  
                 u213_20 06D7                   u205_20 0643                   u221_21 0736  
                 u213_21 06D6                   u205_21 0642                   u230_20 07CF  
                 u222_20 073C                   u206_20 0649                   u230_21 07CE  
                 u222_21 073B                   u206_21 0648                   u214_25 06DA  
                 u150_25 0E4F                   u223_20 0750                   u215_20 06F3  
                 u207_20 064E                   u143_20 0D28                   u231_20 002D  
                 u151_20 0E63                   u223_21 074F                   u215_21 06F2  
                 u207_21 064D                   u143_21 0D27                   u231_21 002C  
                 u151_21 0E62                   u215_25 06EF                   u160_20 03C2  
                 u224_20 0757                   u216_20 070C                   u208_20 0669  
                 u232_20 0033                   u152_20 0E6A                   u160_21 03C1  
                 u224_21 0756                   u216_21 070B                   u208_21 0668  
                 u240_21 00ED                   u232_21 0032                   u152_21 0E69  
                 u240_22 00F4                   u240_23 00FB                   u144_25 0D2F  
                 u161_20 03C8                   u225_20 075D                   u217_20 0714  
                 u209_20 0687                   u145_20 0D3C                   u233_20 0038  
                 u161_21 03C7                   u225_21 075C                   u217_21 0713  
                 u209_21 0686                   u145_21 0D3B                   u241_21 0119  
                 u233_21 0037                   u241_22 0120                   u241_23 0127  
                 u153_25 0E6F                   u162_20 03CD                   u226_20 076F  
                 u250_20 0252                   u234_20 0059                   u154_20 0E83  
                 u146_20 0E09                   u162_21 03CC                   u226_21 076E  
                 u242_21 0135                   u234_21 0058                   u154_21 0E82  
                 u146_21 0E08                   u242_22 013C                   u242_23 0143  
                 u170_25 0474                   u218_25 0718                   u250_25 024D  
                 u171_20 0487                   u163_20 03E6                   u227_20 077E  
                 u219_20 0723                   u235_20 005F                   u155_20 0E88  
                 u147_20 0E2E                   u171_21 0486                   u163_21 03E5  
                 u219_21 0722                   u251_21 025E                   u235_21 005E  
                 u155_21 0E87                   u251_22 0265                   u251_23 026C  
                 u227_25 0779                   u243_25 0145                   u147_25 0E29  
                 u172_20 048B                   u164_20 03EA                   u156_20 038E  
                 u228_20 079B                   u260_20 02E5                   u252_20 027A  
                 u236_20 0064                   u148_20 0E46                   u180_21 0503  
                 u172_21 048A                   u164_21 03E9                   u156_21 038D  
                 u228_21 079A                   u260_21 02E4                   u244_21 016B  
                 u236_21 0063                   u148_21 0E45                   u180_22 0504  
                 u244_22 0172                   u180_23 0509                   u244_23 0179  
                 u180_24 050A                   u180_25 050F                   u228_25 0797  
                 u252_25 0275                   u180_26 0510                   u181_20 0517  
                 u173_20 0490                   u165_20 0442                   u157_20 0394  
                 u229_20 07B8                   u261_20 02EC                   u237_20 007B  
                 u149_20 0E4D                   u181_21 0518                   u173_21 048F  
                 u165_21 0441                   u157_21 0393                   u229_21 07B7  
                 u261_21 02EB                   u253_21 0286                   u245_21 0198  
                 u237_21 007A                   u149_21 0E4C                   u181_22 051D  
                 u253_22 028D                   u245_22 019F                   u181_23 051E  
                 u253_23 0294                   u245_23 01A6                   u165_25 043E  
                 u229_25 07B4                   u190_20 058F                   u182_20 0535  
                 u166_20 044D                   u158_20 0399                   u262_20 02F2  
                 u238_20 0080                   u270_20 0F70                   u190_21 058E  
                 u182_21 0534                   u174_21 04A2                   u166_21 044B  
                 u158_21 0398                   u262_21 02F1                   u238_21 007F  
                 u270_21 0F6F                   u174_22 04A9                   u174_23 04B0  
                 u254_25 0296                   u246_25 01A8                   u191_20 0595  
                 u183_20 055A                   u175_20 04B4                   u167_20 044E  
                 u159_20 03B7                   u263_20 0304                   u191_21 0594  
                 u183_21 0559                   u175_21 04B3                   u159_21 03B6  
                 u263_21 0303                   u247_21 01CE                   u239_21 00D1  
                 u247_22 01D5                   u239_22 00D8                   u247_23 01DC  
                 u239_23 00DF                   u255_25 02AD                   u271_25 0F83  
                 u192_20 059C                   u184_20 055F                   u176_20 04B8  
                 u168_20 0462                   u264_20 0313                   u256_20 02B8  
                 u280_20 0FF2                   u272_20 0F91                   u192_21 059B  
                 u184_21 055E                   u176_21 04B7                   u168_21 0461  
                 u256_21 02B7                   u248_21 01FB                   u280_21 0FF1  
                 u272_21 0F90                   u248_22 0202                   u248_23 0209  
                 u264_25 030E                   u193_20 05A2                   u177_20 04C7  
                 u169_20 0471                   u265_20 0330                   u281_20 0FF6  
                 u193_21 05A1                   u177_21 04C6                   u169_21 0470  
                 u265_21 032F                   u249_21 0228                   u281_21 0FF5  
                 u249_22 022F                   u249_23 0236                   u185_25 056A  
                 u265_25 032C                   u257_25 02BB                   u273_25 0FA5  
                 u194_20 05B4                   u186_20 0575                   u266_20 034A  
                 u258_20 02CC                   u274_20 0FB3                   u194_21 05B3  
                 u186_21 0574                   u266_21 0349                   u258_21 02CB  
                 u274_21 0FB2                   u178_25 04CA                   u266_25 0346  
                 u195_20 05C3                   u187_20 057A                   u179_20 04EC  
                 u267_20 0368                   u259_20 02D1                   u283_20 0D93  
                 u187_21 0579                   u179_21 04EB                   u267_21 0367  
                 u259_21 02D0                   u283_21 0D92                   u179_23 04E8  
                 u195_25 05BE                   u275_25 0FB8                   u196_20 05D2  
                 u188_20 0584                   u276_20 0FC3                   u268_20 0F4C  
                 u284_20 0DA0                   u196_21 05D1                   u188_21 0583  
                 u276_21 0FC2                   u268_21 0F4B                   u284_21 0D9F  
                 u197_20 05DB                   u189_20 058A                   u277_20 0FC9  
                 u269_20 0F50                   u197_21 05DA                   u189_21 0589  
                 u277_21 0FC8                   u269_21 0F4F                   u285_27 0D97  
                 u198_20 05E0                   u278_20 0FCD                   u198_21 05DF  
                 u278_21 0FCC                   u286_27 0DAE                   u199_20 05ED  
                 u279_20 0FE2                   u199_21 05EC                   u279_25 0FDD  
                 _SSPBUF 0013         __end_of___xxtofl 1000                ??___fladd 005C  
              ??___fldiv 0028                ??___flmul 0042                ??___fltol 00A0  
                 saved_w 007E             ___xxtofl@arg 007A             ___xxtofl@exp 0079  
           ___xxtofl@val 0070  __end_of__initialization 0018               ___fltol@f1 0068  
         __pcstackCOMMON 0070            __end_of_setup 0D8D                  ??_setup 00B0  
             __pbssBANK1 00B0        __end_of__Umul8_16 0D41               __pmaintext 07E2  
             __pintentry 0004                  _CCP1CON 0017                ?___xxtofl 0070  
                ___fladd 037D                  ___fldiv 0605                  ___flmul 001C  
                ___fltol 0DF8                  __ptext1 0D41                  __ptext2 0D8D  
                __ptext3 0E94                  __ptext4 0F46                  __ptext5 0DF8  
                __ptext6 001C                  __ptext7 0D1A                  __ptext8 0605  
                __ptext9 037D                _T2CONbits 0012               ??___xxtofl 0074  
   end_of_initialization 0018              ___fladd@grs 0067            ___xxtofl@sign 0078  
              _TRISCbits 0087              ___fldiv@grs 0034              ___fldiv@rem 002D  
            ___flmul@grs 0048              _CCP1CONbits 0017      start_initialization 0013  
            __end_of_map 0F46              __end_of_isr 0DF8                __Umul8_16 0D1A  
              ___fladd@a 0058                ___fladd@b 0054                ___fldiv@a 0020  
              ___fldiv@b 0024                ___flmul@a 003E                ___flmul@b 003A  
              ___latbits 0002            __pcstackBANK0 0020            __pcstackBANK1 00A0  
               ?___fladd 0054                 ?___fldiv 0020                 ?___flmul 003A  
               ?___fltol 0068               ?__Umul8_16 0070        interrupt_function 0004  
               _PIE1bits 008C                 _PIR1bits 000C              ??__Umul8_16 0072  
               ___xxtofl 0F46               _INTCONbits 000B                 intlevel1 0000  
             _OSCCONbits 008F   __Umul8_16@multiplicand 0070            ___fladd@signs 0064  
           ___fladd@aexp 0065             ___fladd@bexp 0066     __Umul8_16@multiplier 0078  
             _SSPCONbits 0014        __Umul8_16@product 0074  
